(dp1
F11
(dp2
S'BOOSTED'
p3
(dp4
I00
(dp5
S'TRACK'
p6
(F1.398636868308059
F0.091371858400566511
F1.0327562465410176
F0.0082874122806298571
tp7
sssS'Z'
(dp8
I00
(dp9
S'TRACK'
p10
(F1.3915154003331829
F0.094665159623971831
F0.81248481950336948
F0.085539298574521028
tp11
sssS'GGF'
p12
(dp13
I00
(dp14
S'TRACK'
p15
(F1.2569730460954343
F0.041263317533857188
F1.0687344779046304
F0.085050980920730684
tp16
sssS'VBF'
p17
(dp18
I00
(dp19
S'TRACK'
p20
(F0.97285022842364921
F0.20888230695421411
F1.266820885929044
F0.17089225022830917
tp21
sssS'PRESELECTION'
p22
(dp23
I00
(dp24
S'TRACK'
p25
(F1.3105431549130973
F0.038237776947673822
F0.7668161433517765
F0.054563271687802922
tp26
ssssF12
(dp27
S'BOOSTED'
p28
(dp29
I01
(dp30
S'TRACK'
p31
(F0.99731944725693533
F2.4173013633173588e-06
F-0.55244003573680056
F0.42288262158588635
tp32
sssS'Z'
(dp33
I00
(dp34
S'TRACK'
p35
(F1.2519489670833579
F0.020819089798733644
F0.95504704994063327
F0.055789187281596743
tp36
sssS'GGF'
p37
(dp38
I00
(dp39
S'TRACK'
p40
(F1.2305155078403716
F0.016460246206792054
F1.1354268251321065
F0.061729834665481514
tp41
sssS'VBF'
p42
(dp43
I00
(dp44
S'TRACK'
p45
(F1.0490739268209901
F0.057953960760118502
F1.2016089263082064
F0.10461868494703525
tp46
sssS'PRESELECTION'
p47
(dp48
I00
(dp49
S'TRACK'
p50
(F1.2128673927973905
F0.014980948128128377
F1.1513340177513609
F0.049588949831467638
tp51
ssss.