(lp0
cnumpy.core.multiarray
scalar
p1
(cnumpy
dtype
p2
(S'f8'
p3
I0
I1
tp4
Rp5
(I3
S'<'
p6
NNNI-1
I-1
I0
tp7
bS'C\xfb}\x9dtj\xf8\xc0'
p8
tp9
Rp10
ag1
(g5
S'\x00\xdc=D\x001\xad?'
p11
tp12
Rp13
ag1
(g5
S'6\xd0\x93 \x15~\x06@'
p14
tp15
Rp16
ag1
(g5
S'\x19\xfd\x1daqj\xf8@'
p17
tp18
Rp19
a.