(lp0
cnumpy.core.multiarray
scalar
p1
(cnumpy
dtype
p2
(S'f8'
p3
I0
I1
tp4
Rp5
(I3
S'<'
p6
NNNI-1
I-1
I0
tp7
bS'\xd6-0\xefaj\xf8\xc0'
p8
tp9
Rp10
ag1
(g5
S'\x00\xc0n1<n\xdc?'
p11
tp12
Rp13
ag1
(g5
S'\xf8]\x93\xf59\xec\xe6?'
p14
tp15
Rp16
ag1
(g5
S'\x884SY\xc6\xd2\xfc?'
p17
tp18
Rp19
ag1
(g5
S'\xb6\xdbm\x13Gj\xf8@'
p20
tp21
Rp22
a.