(lp0
cnumpy.core.multiarray
scalar
p1
(cnumpy
dtype
p2
(S'f8'
p3
I0
I1
tp4
Rp5
(I3
S'<'
p6
NNNI-1
I-1
I0
tp7
bS'\xd0as_\x88j\xf8\xc0'
p8
tp9
Rp10
ag1
(g5
S'@\xd0\xbcY\xeb\x17\xee\xbf'
p11
tp12
Rp13
ag1
(g5
S'\xc0\x98\x07@\x8fs\xde?'
p14
tp15
Rp16
ag1
(g5
S'\x17\xef\n?nj\xf8@'
p17
tp18
Rp19
a.