(lp0
cnumpy.core.multiarray
scalar
p1
(cnumpy
dtype
p2
(S'f8'
p3
I0
I1
tp4
Rp5
(I3
S'<'
p6
NNNI-1
I-1
I0
tp7
bS'\xf2\xc2\x83\x92\tj\xf8\xc0'
p8
tp9
Rp10
ag1
(g5
S'\x00ub?\xd5\xeao?'
p11
tp12
Rp13
ag1
(g5
S'\x00h\xe6\r\x1bV\xbf?'
p14
tp15
Rp16
ag1
(g5
S'\x84\xa7*-\x05j\xf8@'
p17
tp18
Rp19
a.