(lp0
F-100004.88450211637
aF-3.1372337964450567
aF-2.5233287110627973
aF-2.0050223537982257
aF-1.3729414303048455
aF-0.7040727281954489
aF-0.23958057395281163
aF0.16432564712774145
aF0.6033541483022562
aF0.9536428460478792
aF100003.4557049728
a.