(lp0
cnumpy.core.multiarray
scalar
p1
(cnumpy
dtype
p2
(S'f8'
p3
I0
I1
tp4
Rp5
(I3
S'<'
p6
NNNI-1
I-1
I0
tp7
bS'[\x18UTkj\xf8\xc0'
p8
tp9
Rp10
ag1
(g5
S'\x00\x9cDOW\x03\xd8?'
p11
tp12
Rp13
ag1
(g5
S'\x00\xd5D\xab\xb7f\xe5?'
p14
tp15
Rp16
ag1
(g5
S'p$`d\xe2\x84\xfa?'
p17
tp18
Rp19
ag1
(g5
S'\xd77\x95\xeeGj\xf8@'
p20
tp21
Rp22
a.