(lp0
F-100002.57250962051
aF-1.5299845466949957
aF-1.124558129099045
aF-0.8067151187886306
aF-0.5192601999032429
aF-0.239271642547346
aF0.07889717262980955
aF0.4404526444220318
aF1.0075984825274786
aF100001.85831723969
a.