(lp0
cnumpy.core.multiarray
scalar
p1
(cnumpy
dtype
p2
(S'f8'
p3
I0
I1
tp4
Rp5
(I3
S'<'
p6
NNNI-1
I-1
I0
tp7
bS'\xc8,y\xb3\x15j\xf8\xc0'
p8
tp9
Rp10
ag1
(g5
S'\xd0=x\xf1\x1d\x14\xe1\xbf'
p11
tp12
Rp13
ag1
(g5
S'p\x0f\x10\x87\xd4^\xc7?'
p14
tp15
Rp16
ag1
(g5
S'\xc7*qx\tj\xf8@'
p17
tp18
Rp19
a.