(lp0
cnumpy.core.multiarray
scalar
p1
(cnumpy
dtype
p2
(S'f8'
p3
I0
I1
tp4
Rp5
(I3
S'<'
p6
NNNI-1
I-1
I0
tp7
bS'F\xa7\xec\xc4Wj\xf8\xc0'
p8
tp9
Rp10
ag1
(g5
S'@\x19v\xc7\x9f\xee\xc5\xbf'
p11
tp12
Rp13
ag1
(g5
S'\xf8\x06rH\xd5$\xfd?'
p14
tp15
Rp16
ag1
(g5
S'zO\x9c\xf1%j\xf8@'
p17
tp18
Rp19
a.