(lp0
F-100005.48557725278
aF-1.5524261706329434
aF-1.388544875543328
aF-1.1270321706130906
aF-0.6427493837052438
aF-0.4409648891603073
aF-0.2307727073426653
aF1.428639254375561
aF1.805778336584249
aF100002.37148695989
a.