(lp0
F-100005.48557725278
aF-2.1979552048501927
aF-1.4762820723769812
aF-1.1276477088633525
aF-1.038710371232325
aF-0.9479579858945417
aF-0.6583227135399135
aF0.8660734567476025
aF1.271497970121941
aF100002.37148695989
a.