(lp0
cnumpy.core.multiarray
scalar
p1
(cnumpy
dtype
p2
(S'f8'
p3
I0
I1
tp4
Rp5
(I3
S'<'
p6
NNNI-1
I-1
I0
tp7
bS'\x04A?\x03\\j\xf8\xc0'
p8
tp9
Rp10
ag1
(g5
S'\x98\x86"F{\xf0\xeb\xbf'
p11
tp12
Rp13
ag1
(g5
S'`b\x83\x01\xc7"\xdf?'
p14
tp15
Rp16
ag1
(g5
S'L\xee\x10>\x1dj\xf8@'
p17
tp18
Rp19
a.