(lp0
cnumpy.core.multiarray
scalar
p1
(cnumpy
dtype
p2
(S'f8'
p3
I0
I1
tp4
Rp5
(I3
S'<'
p6
NNNI-1
I-1
I0
tp7
bS'D\xd2%\xabCj\xf8\xc0'
p8
tp9
Rp10
ag1
(g5
S'(\r\xd0d\x18\xed\xe8\xbf'
p11
tp12
Rp13
ag1
(g5
S'\x90x\xf6j\x14\t\xd4?'
p14
tp15
Rp16
ag1
(g5
S'[\x02\xdcfZJ\xef?'
p17
tp18
Rp19
ag1
(g5
S'h^<\xc9\x1ej\xf8@'
p20
tp21
Rp22
a.