(lp0
F-100001.74075703851
aF-1.0908687374853234
aF-0.8123451799010989
aF-0.5802422152475786
aF-0.29011350943067815
aF0.11904235774700211
aF0.42180039899898536
aF0.8965081291850214
aF100001.64035215085
a.