(lp0
cnumpy.core.multiarray
scalar
p1
(cnumpy
dtype
p2
(S'f8'
p3
I0
I1
tp4
Rp5
(I3
S'<'
p6
NNNI-1
I-1
I0
tp7
bS'U\xfeZ2(j\xf8\xc0'
p8
tp9
Rp10
ag1
(g5
S'\x80:\xb4)\x1eH\x9a\xbf'
p11
tp12
Rp13
ag1
(g5
S'\xa0\x86\x9e\xf7\xf7x\xe2?'
p14
tp15
Rp16
ag1
(g5
S'\x86\x00\xfc>$j\xf8@'
p17
tp18
Rp19
a.