(lp0
F-100002.7374023421
aF-1.5526374888056667
aF-1.091895601414735
aF-0.627778315581379
aF-0.34010231196566254
aF-0.1870831611062389
aF-0.13503583088194526
aF-0.08192631024491082
aF0.5009830626005893
aF1.06967513366937
aF100001.21184815143
a.