(lp0
cnumpy.core.multiarray
scalar
p1
(cnumpy
dtype
p2
(S'f8'
p3
I0
I1
tp4
Rp5
(I3
S'<'
p6
NNNI-1
I-1
I0
tp7
bS'>\xda\xe5\xefij\xf8\xc0'
p8
tp9
Rp10
ag1
(g5
S'\x00\xb6\xd9bp\x19\xce?'
p11
tp12
Rp13
ag1
(g5
S'\x81\x9b\x83\x9azj\xf8@'
p14
tp15
Rp16
a.