(lp0
F-100001.17806309888
aF-0.7189041552035995
aF-0.38640974771320025
aF-0.2575359463603324
aF0.06589251263335161
aF0.20410980280159263
aF0.2617003403716929
aF0.4336937025742901
aF100000.76756317038
a.