(lp0
cnumpy.core.multiarray
scalar
p1
(cnumpy
dtype
p2
(S'f8'
p3
I0
I1
tp4
Rp5
(I3
S'<'
p6
NNNI-1
I-1
I0
tp7
bS'%\xb1X\xd9\x12j\xf8\xc0'
p8
tp9
Rp10
ag1
(g5
S'$\x16\xaaw\x1eZ\xd9?'
p11
tp12
Rp13
ag1
(g5
S'\xc9F\xc3<\x16\x83\xe1?'
p14
tp15
Rp16
ag1
(g5
S'\xa6Q\xf0G\x0cj\xf8@'
p17
tp18
Rp19
a.