(lp0
cnumpy.core.multiarray
scalar
p1
(cnumpy
dtype
p2
(S'f8'
p3
I0
I1
tp4
Rp5
(I3
S'<'
p6
NNNI-1
I-1
I0
tp7
bS'\xcc\xc9\xe3\xe8nj\xf8\xc0'
p8
tp9
Rp10
ag1
(g5
S'\x807]W9\xca\xc8?'
p11
tp12
Rp13
ag1
(g5
S'`\xe8\xc6\xeb\x1a:\xe7?'
p14
tp15
Rp16
ag1
(g5
S'\xa6>/&Mj\xf8@'
p17
tp18
Rp19
a.