(lp0
cnumpy.core.multiarray
scalar
p1
(cnumpy
dtype
p2
(S'f8'
p3
I0
I1
tp4
Rp5
(I3
S'<'
p6
NNNI-1
I-1
I0
tp7
bS'6\x98\xe9\xdfEj\xf8\xc0'
p8
tp9
Rp10
ag1
(g5
S'\x00&\xff\xa6\x96V\xcc?'
p11
tp12
Rp13
ag1
(g5
S'(\xe4\xde+\x06\r\xe2?'
p14
tp15
Rp16
ag1
(g5
S'\r\x19\x96\x1d5j\xf8@'
p17
tp18
Rp19
a.