(lp0
cnumpy.core.multiarray
scalar
p1
(cnumpy
dtype
p2
(S'f8'
p3
I0
I1
tp4
Rp5
(I3
S'<'
p6
NNNI-1
I-1
I0
tp7
bS'>##b\x17j\xf8\xc0'
p8
tp9
Rp10
ag1
(g5
S'\x80\x14i\xbd\xe3\x9d\x97\xbf'
p11
tp12
Rp13
ag1
(g5
S'@`\xcank\xd7\xbd?'
p14
tp15
Rp16
ag1
(g5
S'\xc5D\x07M\x0ej\xf8@'
p17
tp18
Rp19
a.