(lp0
cnumpy.core.multiarray
scalar
p1
(cnumpy
dtype
p2
(S'f8'
p3
I0
I1
tp4
Rp5
(I3
S'<'
p6
NNNI-1
I-1
I0
tp7
bS'\x04\xb6CW;j\xf8\xc0'
p8
tp9
Rp10
ag1
(g5
S'\\.\xb0a\xdf-\x04\xc0'
p11
tp12
Rp13
ag1
(g5
S'\xa0\x12\x120\xb1Q\xd2?'
p14
tp15
Rp16
ag1
(g5
S'\x9c\xada5\xe8\x13\xe7?'
p17
tp18
Rp19
ag1
(g5
S'P\xa1i\xb5/j\xf8@'
p20
tp21
Rp22
a.