(lp0
F-100001.68703495052
aF-1.1382999114722179
aF-0.8019784359312292
aF-0.491012633510685
aF-0.11332137551002375
aF0.43960501570716004
aF0.785802219510406
aF1.0742998893464442
aF100001.74746111897
a.