(lp0
cnumpy.core.multiarray
scalar
p1
(cnumpy
dtype
p2
(S'f8'
p3
I0
I1
tp4
Rp5
(I3
S'<'
p6
NNNI-1
I-1
I0
tp7
bS'C^\xa4\xba*j\xf8\xc0'
p8
tp9
Rp10
ag1
(g5
S'\xa0\x0e:\xb59r\xb0?'
p11
tp12
Rp13
ag1
(g5
S'@\xb4@\xbe\x8c}\xca?'
p14
tp15
Rp16
ag1
(g5
S'!\xd8#\x0b&j\xf8@'
p17
tp18
Rp19
a.