(lp0
cnumpy.core.multiarray
scalar
p1
(cnumpy
dtype
p2
(S'f8'
p3
I0
I1
tp4
Rp5
(I3
S'<'
p6
NNNI-1
I-1
I0
tp7
bS'\xf0y5\x13Dj\xf8\xc0'
p8
tp9
Rp10
ag1
(g5
S'\xc0\xb2\x01\xbd\\\x16\xb8?'
p11
tp12
Rp13
ag1
(g5
S'\xf0\x96)\x99W\xe4\xdd?'
p14
tp15
Rp16
ag1
(g5
S'HS\xe9S:j\xf8@'
p17
tp18
Rp19
a.