(lp0
F-100001.23169341413
aF-0.7494435210803416
aF-0.5010117579953257
aF-0.2949220601118284
aF-0.1424243978301707
aF0.006112286210405049
aF0.17490397262015
aF0.5227171446159884
aF100000.89951474761
a.