(lp0
cnumpy.core.multiarray
scalar
p1
(cnumpy
dtype
p2
(S'f8'
p3
I0
I1
tp4
Rp5
(I3
S'<'
p6
NNNI-1
I-1
I0
tp7
bS'M\xbe\xa9\xdd\x19j\xf8\xc0'
p8
tp9
Rp10
ag1
(g5
S'\xb8\xd7P\xf2\xf8\xce\xc6?'
p11
tp12
Rp13
ag1
(g5
S'X[\xe6<dK\xd9?'
p14
tp15
Rp16
ag1
(g5
S'N \t\xa7\rj\xf8@'
p17
tp18
Rp19
a.