(lp0
cnumpy.core.multiarray
scalar
p1
(cnumpy
dtype
p2
(S'f8'
p3
I0
I1
tp4
Rp5
(I3
S'<'
p6
NNNI-1
I-1
I0
tp7
bS'\xde\xaf\x98\x1eAj\xf8\xc0'
p8
tp9
Rp10
ag1
(g5
S'`n\xd3/\xd5o\xc5\xbf'
p11
tp12
Rp13
ag1
(g5
S'(\xb6q\x0f\x1ft\xeb?'
p14
tp15
Rp16
ag1
(g5
S'\x1c\n\x96B\x1fj\xf8@'
p17
tp18
Rp19
a.