(lp0
F-100001.45524305826
aF-1.1858792968353113
aF-0.9564212778531427
aF-0.6994524818915571
aF-0.433904441549696
aF0.003812108464360753
aF0.32409251091367053
aF0.8859879538071962
aF100001.39991671256
a.