(lp0
cnumpy.core.multiarray
scalar
p1
(cnumpy
dtype
p2
(S'f8'
p3
I0
I1
tp4
Rp5
(I3
S'<'
p6
NNNI-1
I-1
I0
tp7
bS'\xd5Y\xf3tGj\xf8\xc0'
p8
tp9
Rp10
ag1
(g5
S'\xc0EMiX\xa2\xb1?'
p11
tp12
Rp13
ag1
(g5
S'\xd0\xf7\x07\x82Rp\xdd?'
p14
tp15
Rp16
ag1
(g5
S'Q2r\x841j\xf8@'
p17
tp18
Rp19
a.