(lp0
cnumpy.core.multiarray
scalar
p1
(cnumpy
dtype
p2
(S'f8'
p3
I0
I1
tp4
Rp5
(I3
S'<'
p6
NNNI-1
I-1
I0
tp7
bS'j:\xa7I\x14j\xf8\xc0'
p8
tp9
Rp10
ag1
(g5
S'\xe0Kw\x8d\x15\t\xc1?'
p11
tp12
Rp13
ag1
(g5
S'\xba\xcd\x9d\xbc\x0bj\xf8@'
p14
tp15
Rp16
a.