(lp0
cnumpy.core.multiarray
scalar
p1
(cnumpy
dtype
p2
(S'f8'
p3
I0
I1
tp4
Rp5
(I3
S'<'
p6
NNNI-1
I-1
I0
tp7
bS'w\xdc.\xa3+j\xf8\xc0'
p8
tp9
Rp10
ag1
(g5
S' \xe1m#\xf3[\xc9\xbf'
p11
tp12
Rp13
ag1
(g5
S'0\x9e\xb2\xfbN*\xd5?'
p14
tp15
Rp16
ag1
(g5
S'r\xf3\xa9\t\xec$\xe4?'
p17
tp18
Rp19
ag1
(g5
S'.\x97~\xfc\x12j\xf8@'
p20
tp21
Rp22
a.