(lp0
F-100006.13990643702
aF-2.1803710980466544
aF-2.0153904589225604
aF-1.2297683678554483
aF-0.8027998401015823
aF0.0660314663743069
aF0.6056782405829342
aF1.1922508212444844
aF1.5231379180279232
aF100003.26029517614
a.