(lp0
cnumpy.core.multiarray
scalar
p1
(cnumpy
dtype
p2
(S'f8'
p3
I0
I1
tp4
Rp5
(I3
S'<'
p6
NNNI-1
I-1
I0
tp7
bS'd\x04\xde\xd2%j\xf8\xc0'
p8
tp9
Rp10
ag1
(g5
S'\x002\xf4\x9f\xa2w{?'
p11
tp12
Rp13
ag1
(g5
S'\x80>u:\x90\xf2\xd0?'
p14
tp15
Rp16
ag1
(g5
S'\xe5N\x01\x98\x14j\xf8@'
p17
tp18
Rp19
a.