(lp0
cnumpy.core.multiarray
scalar
p1
(cnumpy
dtype
p2
(S'f8'
p3
I0
I1
tp4
Rp5
(I3
S'<'
p6
NNNI-1
I-1
I0
tp7
bS'C\xfb}\x9dtj\xf8\xc0'
p8
tp9
Rp10
ag1
(g5
S'@\xe6\xe6\xea8p\xdb?'
p11
tp12
Rp13
ag1
(g5
S'XGD\xfaK\xc2\xe2?'
p14
tp15
Rp16
ag1
(g5
S'2 \xe29\xc6U\x01@'
p17
tp18
Rp19
ag1
(g5
S'dk\x8f\xbb\xf8\xe1\x05@'
p20
tp21
Rp22
ag1
(g5
S'\x19\xfd\x1daqj\xf8@'
p23
tp24
Rp25
a.