(lp0
cnumpy.core.multiarray
scalar
p1
(cnumpy
dtype
p2
(S'f8'
p3
I0
I1
tp4
Rp5
(I3
S'<'
p6
NNNI-1
I-1
I0
tp7
bS'8\x88\x0e=bj\xf8\xc0'
p8
tp9
Rp10
ag1
(g5
S'0\xaa\x8d\x8c\x0c\r\xe4?'
p11
tp12
Rp13
ag1
(g5
S'0\xdb\xd2l\xc5\x12\xf2?'
p14
tp15
Rp16
ag1
(g5
S'\x04\xddk\xeb\xed\x15\x00@'
p17
tp18
Rp19
ag1
(g5
S'MF+*4j\xf8@'
p20
tp21
Rp22
a.