(lp0
cnumpy.core.multiarray
scalar
p1
(cnumpy
dtype
p2
(S'f8'
p3
I0
I1
tp4
Rp5
(I3
S'<'
p6
NNNI-1
I-1
I0
tp7
bS'\x9a\x0f,\xab\x13j\xf8\xc0'
p8
tp9
Rp10
ag1
(g5
S'\xa0\xd2>\xb3\xe2\x0c\xaa?'
p11
tp12
Rp13
ag1
(g5
S'\xd4c\xe4\x088B\xd1?'
p14
tp15
Rp16
ag1
(g5
S'wr{u\x14j\xf8@'
p17
tp18
Rp19
a.