(dp1
F11
(dp2
S'BOOSTED'
p3
(dp4
I00
(dp5
S'TRACK'
p6
(F1.398636868308059
F0.091371858400566511
F1.0327562465410176
F0.0082874122806298571
tp7
sssS'Z'
(dp8
I00
(dp9
S'TRACK'
p10
(F1.3915154003331829
F0.094665159623971831
F0.81248481950336948
F0.085539298574521028
tp11
sssS'GGF'
p12
(dp13
I00
(dp14
S'TRACK'
p15
(F1.2569730460954343
F0.041263317533857188
F1.0687344779046304
F0.085050980920730684
tp16
sssS'VBF'
p17
(dp18
I00
(dp19
S'TRACK'
p20
(F0.97285022842364921
F0.20888230695421411
F1.266820885929044
F0.17089225022830917
tp21
sssS'PRESELECTION'
p22
(dp23
I00
(dp24
S'TRACK'
p25
(F1.3105431549130973
F0.038237776947673822
F0.7668161433517765
F0.054563271687802922
tp26
ssssF12
(dp27
S'BOOSTED'
p28
(dp29
I01
(dp30
S'TRACK'
p31
(F0.95545683262777192
F0.078072175951299172
F101.08650024413781
F6.3775492401683005
tp32
sssS'Z'
(dp33
I00
(dp34
S'TRACK'
p35
(F1.2410524209250922
F0.00012499170391698589
F0.99941855014342929
F0.00094161905560414313
tp36
sssS'GGF'
p37
(dp38
I01
(dp39
S'TRACK'
p40
(F1.2363494522667644
F0.0035397935325556279
F77.636606661104665
F0.082579285439543015
tp41
sssS'VBF'
p42
(dp43
I01
(dp44
S'TRACK'
p45
(F0.73583610315678782
F0.01709179195041206
F120.23152109492764
F2.2198128439500602
tp46
sssS'PRESELECTION'
p47
(dp48
I00
(dp49
S'TRACK'
p50
(F1.2137820371254109
F0.00062136543994917163
F1.1583474830018008
F0.00016025809675018207
tp51
ssss.