(dp0
S'cuts_vbf_highdr_loose'
p1
F0.005693759277081383
sS'vbf'
p2
F0.0024591415920673775
sS'cuts_boosted_loose'
p3
F0.011063465246358551
sS'boosted'
p4
F0.02032342110010931
sS'rest'
p5
F0.003984682630472611
sS'cuts_vbf_lowdr'
p6
F0.01637586742912657
sS'cuts_vbf_highdr_tight'
p7
F0.030401070893708568
sS'cuts_boosted_tight'
p8
F0.0413000851327304
s.