(lp0
cnumpy.core.multiarray
scalar
p1
(cnumpy
dtype
p2
(S'f8'
p3
I0
I1
tp4
Rp5
(I3
S'<'
p6
NNNI-1
I-1
I0
tp7
bS'v\x8d\x99\x0f,\xab\xf3\xbf'
p8
tp9
Rp10
ag1
(g5
S'\x00\xf8:^+\xdfB?'
p11
tp12
Rp13
ag1
(g5
S"|\x8b\x15P'\xd2\xd0?"
p14
tp15
Rp16
ag1
(g5
S'\x90>wr{u\xf4?'
p17
tp18
Rp19
a.