(lp0
cnumpy.core.multiarray
scalar
p1
(cnumpy
dtype
p2
(S'f8'
p3
I0
I1
tp4
Rp5
(I3
S'<'
p6
NNNI-1
I-1
I0
tp7
bS'\xcc d7\xec\x90\x0b\xc0'
p8
tp9
Rp10
ag1
(g5
S'\xd0\x05\x05U7,\xca\xbf'
p11
tp12
Rp13
ag1
(g5
S't\xd8\nL;\x00\xe1?'
p14
tp15
Rp16
ag1
(g5
S'\xf4X/\xc47m\xf7?'
p17
tp18
Rp19
ag1
(g5
S'K\xcd\x8f\xf5,\x81\x13@'
p20
tp21
Rp22
a.