(lp0
cnumpy.core.multiarray
scalar
p1
(cnumpy
dtype
p2
(S'f8'
p3
I0
I1
tp4
Rp5
(I3
S'<'
p6
NNNI-1
I-1
I0
tp7
bS'\xb2\x13\x1a\x8fB\x9e\x19\xc0'
p8
tp9
Rp10
ag1
(g5
S'@>\x18W\xc3r\xcc\xbf'
p11
tp12
Rp13
ag1
(g5
S'`\xce\rab\xdb\xd1?'
p14
tp15
Rp16
ag1
(g5
S'`\x13D#*\\\xf2?'
p17
tp18
Rp19
ag1
(g5
S'Q3g\x03\xfbw\x13@'
p20
tp21
Rp22
a.