(dp1
F11
(dp2
S'PRESELECTION'
p3
(dp4
I01
(dp5
S'TRACK'
p6
(dp7
S'nOS'
p8
(dp9
S'qcd_z_scale'
p10
F1
sS'qcd_data_scale'
p11
F1
sS'qcd_scale_error'
p12
F0.0088046740166470867
sS'z_scale_error'
p13
F86.16300933991387
sS'qcd_scale'
p14
F0.14687562392402065
sS'qcd_others_scale'
p15
F1
sS'z_scale'
p16
F270.07807118900206
ssssssF12
(dp17
S'VBF'
p18
(dp19
I00
(dp20
S'TRACK'
p21
(dp22
S'SS_TRK'
p23
(dp24
S'qcd_z_scale'
p25
F1
sS'qcd_data_scale'
p26
F1
sS'qcd_scale_error'
p27
F0.23114045919185039
sS'z_scale_error'
p28
F0.17735543679764812
sS'qcd_scale'
p29
F1.5788731444166304
sS'qcd_others_scale'
p30
F1
sS'z_scale'
p31
F1.1363243970214021
ssS'nOS'
p32
(dp33
g25
F1
sg26
F1
sg27
F0.039133877081882526
sg28
F0.17735543679764812
sg29
F0.267315500616018
sg30
F1
sg31
F1.1363243970214021
ssssI01
(dp34
S'TRACK'
p35
(dp36
S'SS_TRK'
p37
(dp38
g25
F1
sg26
F1
sg27
F0.23114045919185039
sg28
F48.205902877183597
sg29
F1.5788731444166304
sg30
F1
sg31
F308.85742500403751
ssS'nOS'
p39
(dp40
g25
F1
sg26
F1
sg27
F0.039133877081882526
sg28
F48.205902877183597
sg29
F0.267315500616018
sg30
F1
sg31
F308.85742500403751
sssssS'CUT_PRESELECTION'
p41
(dp42
I00
(dp43
S'TRACK'
p44
(dp45
S'SS_TRK'
p46
(dp47
S'qcd_z_scale'
p48
F1
sS'qcd_data_scale'
p49
F1
sS'qcd_scale_error'
p50
F0.029028488625265737
sS'z_scale_error'
p51
F0.014069525622470295
sS'qcd_scale'
p52
F1.6892326005319465
sS'qcd_others_scale'
p53
F1
sS'z_scale'
p54
F0.81873712621780625
ssS'nOS'
p55
(dp56
g48
F1
sg49
F1
sg50
F0.0049080725316716801
sg51
F0.014069525622470295
sg52
F0.28561170487735887
sg53
F1
sg54
F0.81873712621780625
ssssI01
(dp57
S'TRACK'
p58
(dp59
S'SS_TRK'
p60
(dp61
g48
F1
sg49
F1
sg50
F0.029028488625265737
sg51
F4.5222530354927635
sg52
F1.6892326005319465
sg53
F1
sg54
F263.16000650340425
ssS'nOS'
p62
(dp63
g48
F1
sg49
F1
sg50
F0.0049080725316716801
sg51
F4.5222530354927635
sg52
F0.28561170487735887
sg53
F1
sg54
F263.16000650340425
sssssS'BOOSTED'
p64
(dp65
I00
(dp66
S'TRACK'
p67
(dp68
g23
(dp69
g25
F1
sg26
F1
sg27
F0.46195695594672548
sg28
F0.10775120928281018
sg29
F3.0774900301213171
sg30
F1
sg31
F0.71885823201903309
ssg32
(dp70
g25
F1
sg26
F1
sg27
F0.07888075116523495
sg28
F0.10775120928281018
sg29
F0.52549208785479651
sg30
F1
sg31
F0.71885823201903309
ssssI01
(dp71
S'TRACK'
p72
(dp73
g37
(dp74
g25
F1
sg26
F1
sg27
F0.46195695594672548
sg28
F37.18921149352385
sg29
F3.0774900301213171
sg30
F1
sg31
F248.10645748067131
ssg39
(dp75
S'qcd_z_scale'
p76
F1
sS'qcd_data_scale'
p77
F1
sS'qcd_scale_error'
p78
F0.034930618278160255
sS'z_scale_error'
p79
F14.456351283015813
sS'qcd_scale'
p80
F0.25969274143770726
sS'qcd_others_scale'
p81
F1
sS'z_scale'
p82
F290.02998982238279
sssssS'0J_NONBOOSTED'
p83
(dp84
I00
(dp85
S'TRACK'
p86
(dp87
S'SS_TRK'
p88
(dp89
S'qcd_z_scale'
p90
F1
sS'qcd_data_scale'
p91
F1
sS'qcd_scale_error'
p92
F0.029355762443992225
sS'z_scale_error'
p93
F0.019144783904423521
sS'qcd_scale'
p94
F1.4330567030615973
sS'qcd_others_scale'
p95
F1
sS'z_scale'
p96
F0.91273998677509227
ssS'SS'
p97
(dp98
g90
F1
sg91
F1
sg92
F0.029355762443992225
sg93
F0.019144783904423521
sg94
F1.3995550097962326
sg95
F1
sg96
F0.91273998677509227
ssS'nOS'
p99
(dp100
g90
F1
sg91
F1
sg92
F0.0055063901896678135
sg93
F0.019144783904423521
sg94
F0.26880478359338267
sg95
F1
sg96
F0.91273998677509227
ssssI01
(dp101
S'TRACK'
p102
(dp103
g37
(dp104
g90
F1
sg91
F1
sg92
F0.029355762443992225
sg93
F5.8583963336253673
sg94
F1.4330567030615973
sg95
F1
sg96
F279.30284398984332
ssg97
(dp105
g90
F1
sg91
F1
sg92
F0.029355762443992225
sg93
F5.727665868244431
sg94
F1.3995550097962326
sg95
F1
sg96
F273.07018428270885
ssg39
(dp106
g90
F1
sg91
F1
sg92
F0.0055063901896678135
sg93
F5.8583963336253673
sg94
F0.26880478359338267
sg95
F1
sg96
F279.30284398984332
sssssS'PRESELECTION'
p107
(dp108
I00
(dp109
S'TRACK'
p110
(dp111
S'SS_TRK'
p112
(dp113
S'qcd_z_scale'
p114
F1
sS'qcd_data_scale'
p115
F1
sS'qcd_scale_error'
p116
F0.02197373129765005
sS'z_scale_error'
p117
F0.013988952476527983
sS'qcd_scale'
p118
F1.5197753205937179
sS'qcd_others_scale'
p119
F1
sS'z_scale'
p120
F0.93045168519838506
ssS'SS'
p121
(dp122
g114
F1
sg115
F1
sg116
F0.02197373129765005
sg117
F0.013988952476527983
sg118
F1.4615458412844287
sg119
F1
sg120
F0.93045168519838484
ssS'nOS'
p123
(dp124
S'qcd_z_scale'
p125
F1
sS'qcd_data_scale'
p126
F1
sS'qcd_scale_error'
p127
F0.0099135861994459028
sS'z_scale_error'
p128
F0.069419667902582652
sS'qcd_scale'
p129
F0.28346519340875798
sS'qcd_others_scale'
p130
F1
sS'z_scale'
p131
F0.74859871545047529
ssssI01
(dp132
S'TRACK'
p133
(dp134
S'SS_TRK'
p135
(dp136
g114
F1
sg115
F1
sg116
F0.02197373129765005
sg117
F4.2520004624317558
sg118
F1.5197753205937179
sg119
F1
sg120
F282.81467124662623
ssg121
(dp137
S'qcd_z_scale'
p138
F1
sS'qcd_data_scale'
p139
F1
sS'qcd_scale_error'
p140
F0.029469913915897608
sS'z_scale_error'
p141
F20.337329692020745
sS'qcd_scale'
p142
F0.82370574953558739
sS'qcd_others_scale'
p143
F1
sS'z_scale'
p144
F261.87779869180866
ssS'nOS'
p145
(dp146
S'qcd_z_scale'
p147
F1
sS'qcd_data_scale'
p148
F1
sS'qcd_scale_error'
p149
F0.01517394663720012
sS'z_scale_error'
p150
F20.195472960747935
sS'qcd_scale'
p151
F0.27828418120964149
sS'qcd_others_scale'
p152
F1
sS'z_scale'
p153
F248.79670890644374
sssssS'1J_NONBOOSTED'
p154
(dp155
I00
(dp156
S'TRACK'
p157
(dp158
g23
(dp159
g25
F1
sg26
F1
sg27
F0.045045075332381619
sg28
F0.0287138728879037
sg29
F1.5311390799782194
sg30
F1
sg31
F0.91208532845902601
ssg32
(dp160
g25
F1
sg26
F1
sg27
F0.0076410655094721197
sg28
F0.0287138728879037
sg29
F0.25972948047921202
sg30
F1
sg31
F0.91208532845902601
ssssI01
(dp161
S'TRACK'
p162
(dp163
g37
(dp164
g25
F1
sg26
F1
sg27
F0.045045075332381619
sg28
F9.1878602765392081
sg29
F1.5311390799782194
sg30
F1
sg31
F291.84891187887069
ssg39
(dp165
g25
F1
sg26
F1
sg27
F0.0076410655094721197
sg28
F9.1878602765392081
sg29
F0.25972948047921202
sg30
F1
sg31
F291.84891187887069
sssssS'PRESELECTION_DETA_CONTROL'
p166
(dp167
I00
(dp168
S'TRACK'
p169
(dp170
S'SS_TRK'
p171
(dp172
S'qcd_z_scale'
p173
F1
sS'qcd_data_scale'
p174
F1
sS'qcd_scale_error'
p175
F0.038053451919162505
sS'z_scale_error'
p176
F0.020150382138893867
sS'qcd_scale'
p177
F1.3446176259958396
sS'qcd_others_scale'
p178
F1
sS'z_scale'
p179
F0.69759677264013042
ssS'SS'
p180
(dp181
g173
F1
sg174
F1
sg175
F0.038053451919162505
sg176
F0.020150382138893867
sg177
F1.3173926461367522
sg178
F1
sg179
F0.69759677264013042
ssS'nOS'
p182
(dp183
g173
F1
sg174
F1
sg175
F0.0068318757221160955
sg176
F0.020150382138893867
sg177
F0.24140413159060736
sg178
F1
sg179
F0.69759677264013042
ssssI01
(dp184
S'TRACK'
p185
(dp186
g171
(dp187
g173
F1
sg174
F1
sg175
F0.038053451919162505
sg176
F7.902397087263985
sg177
F1.3446176259958396
sg178
F1
sg179
F273.57727839590916
ssg180
(dp188
g173
F1
sg174
F1
sg175
F0.038053451919162505
sg176
F7.6168594817023507
sg177
F1.3173926461367522
sg178
F1
sg179
F263.69210050031415
ssg182
(dp189
g173
F1
sg174
F1
sg175
F0.0068318757221160955
sg176
F7.902397087263985
sg177
F0.24140413159060736
sg178
F1
sg179
F273.57727839590916
ssssss.