(dp1
F11
(dp2
S'PRESELECTION'
p3
(dp4
I01
(dp5
S'DETA_TAU1_TAU2'
p6
(dp7
S'OS_NONISOL'
p8
(dp9
S'qcd_z_scale'
p10
F1
sS'qcd_data_scale'
p11
F1
sS'qcd_scale_error'
p12
F0.37120600060347686
sS'z_scale_error'
p13
F46.892566743658449
sS'qcd_scale'
p14
F2.3230902497509609
sS'qcd_others_scale'
p15
F1
sS'z_scale'
p16
F329.24740815686761
ssS'SS'
p17
(dp18
S'qcd_z_scale'
p19
F1
sS'qcd_data_scale'
p20
F1
sS'qcd_scale_error'
p21
F0.2249916187340171
sS'z_scale_error'
p22
F46.002794253095459
sS'qcd_scale'
p23
F1.4545581366358158
sS'qcd_others_scale'
p24
F1
sS'z_scale'
p25
F346.1852688239004
ssS'nOS_NONISOL'
p26
(dp27
S'qcd_z_scale'
p28
F1
sS'qcd_data_scale'
p29
F1
sS'qcd_scale_error'
p30
F0.058501483679728315
sS'z_scale_error'
p31
F37.792599326054656
sS'qcd_scale'
p32
F0.46287397704366912
sS'qcd_others_scale'
p33
F1
sS'z_scale'
p34
F364.81483319967646
ssS'SS_NONISOL'
p35
(dp36
S'qcd_z_scale'
p37
F1
sS'qcd_data_scale'
p38
F1
sS'qcd_scale_error'
p39
F0.54012442912449654
sS'z_scale_error'
p40
F48.697759558208986
sS'qcd_scale'
p41
F2.7533722590899385
sS'qcd_others_scale'
p42
F1
sS'z_scale'
p43
F385.81268224357427
ssS'NONISOL'
p44
(dp45
S'qcd_z_scale'
p46
F1
sS'qcd_data_scale'
p47
F1
sS'qcd_scale_error'
p48
F0.047512008028179904
sS'z_scale_error'
p49
F37.570049728144774
sS'qcd_scale'
p50
F0.38986134614061313
sS'qcd_others_scale'
p51
F1
sS'z_scale'
p52
F356.11037865255679
ssS'nOS'
p53
(dp54
S'qcd_z_scale'
p55
F1
sS'qcd_data_scale'
p56
F1
sS'qcd_scale_error'
p57
F0.019497684857764125
sS'z_scale_error'
p58
F36.15528849086455
sS'qcd_scale'
p59
F0.16926842849103327
sS'qcd_others_scale'
p60
F1
sS'z_scale'
p61
F358.34926086153689
ssssssF12
(dp62
S'PRESELECTION'
p63
(dp64
I00
(dp65
S'DETA_TAU1_TAU2'
p66
(dp67
S'nOS'
p68
(dp69
S'qcd_z_scale'
p70
F1
sS'qcd_data_scale'
p71
F1
sS'qcd_scale_error'
p72
F0.059067074733853565
sS'z_scale_error'
p73
F0.071273608025150897
sS'qcd_scale'
p74
F0.70873324482957945
sS'qcd_others_scale'
p75
F1
sS'z_scale'
p76
F0.85936338916783517
ssssI01
(dp77
S'DETA_TAU1_TAU2'
p78
(dp79
S'OS_NONISOL'
p80
(dp81
S'qcd_z_scale'
p82
F1
sS'qcd_data_scale'
p83
F1
sS'qcd_scale_error'
p84
F0.046261905726791119
sS'z_scale_error'
p85
F12.204189777697241
sS'qcd_scale'
p86
F0.92353919406351859
sS'qcd_others_scale'
p87
F1
sS'z_scale'
p88
F305.99585770773763
ssS'SS'
p89
(dp90
S'qcd_z_scale'
p91
F1
sS'qcd_data_scale'
p92
F1
sS'qcd_scale_error'
p93
F0.075668014858135971
sS'z_scale_error'
p94
F12.114197911898264
sS'qcd_scale'
p95
F1.4503165520119514
sS'qcd_others_scale'
p96
F1
sS'z_scale'
p97
F317.59079367041613
ssS'nOS_NONISOL'
p98
(dp99
S'qcd_z_scale'
p100
F1
sS'qcd_data_scale'
p101
F1
sS'qcd_scale_error'
p102
F0.016809562958609168
sS'z_scale_error'
p103
F12.224458376575715
sS'qcd_scale'
p104
F0.34713516206883649
sS'qcd_others_scale'
p105
F1
sS'z_scale'
p106
F299.40655038297024
ssS'SS_NONISOL'
p107
(dp108
S'qcd_z_scale'
p109
F1
sS'qcd_data_scale'
p110
F1
sS'qcd_scale_error'
p111
F0.06406341059898342
sS'z_scale_error'
p112
F13.108143928489117
sS'qcd_scale'
p113
F1.2351929921927378
sS'qcd_others_scale'
p114
F1
sS'z_scale'
p115
F295.06102139253983
ssS'NONISOL'
p116
(dp117
S'qcd_z_scale'
p118
F1
sS'qcd_data_scale'
p119
F1
sS'qcd_scale_error'
p120
F0.01212664457844494
sS'z_scale_error'
p121
F12.092421189570878
sS'qcd_scale'
p122
F0.25250630579710193
sS'qcd_others_scale'
p123
F1
sS'z_scale'
p124
F300.64790209711339
ssS'nOS'
p125
(dp126
S'qcd_z_scale'
p127
F1
sS'qcd_data_scale'
p128
F1
sS'qcd_scale_error'
p129
F0.033309319191124141
sS'z_scale_error'
p130
F12.518594770039073
sS'qcd_scale'
p131
F0.65178271138697663
sS'qcd_others_scale'
p132
F1
sS'z_scale'
p133
F305.20560784333651
ssssss.