(dp1
F11
(dp2
S'PRESELECTION'
p3
(dp4
I01
(dp5
S'DETA_TAU1_TAU2'
p6
(dp7
S'SS'
p8
(dp9
S'qcd_z_scale'
p10
F1
sS'qcd_data_scale'
p11
F1
sS'qcd_scale_error'
p12
F0.3080505974787548
sS'z_scale_error'
p13
F68.282081376786778
sS'qcd_scale'
p14
F1.2847612693672039
sS'qcd_others_scale'
p15
F1
sS'z_scale'
p16
F363.16949793840661
ssS'nOS'
p17
(dp18
S'qcd_z_scale'
p19
F1
sS'qcd_data_scale'
p20
F1
sS'qcd_scale_error'
p21
F0.032322002811957802
sS'z_scale_error'
p22
F61.442084518698245
sS'qcd_scale'
p23
F0.16739891474032287
sS'qcd_others_scale'
p24
F1
sS'z_scale'
p25
F345.21685030431212
ssssssF12
(dp26
S'PRESELECTION'
p27
(dp28
I00
(dp29
S'DETA_TAU1_TAU2'
p30
(dp31
S'nOS'
p32
(dp33
S'qcd_z_scale'
p34
F1
sS'qcd_data_scale'
p35
F1
sS'qcd_scale_error'
p36
F0.059067074733853565
sS'z_scale_error'
p37
F0.071273608025150897
sS'qcd_scale'
p38
F0.70873324482957945
sS'qcd_others_scale'
p39
F1
sS'z_scale'
p40
F0.85936338916783517
ssssI01
(dp41
S'DETA_TAU1_TAU2'
p42
(dp43
S'NONISOL'
p44
(dp45
S'qcd_z_scale'
p46
F1
sS'qcd_data_scale'
p47
F1
sS'qcd_scale_error'
p48
F0.0095189782475523718
sS'z_scale_error'
p49
F11.092716698335806
sS'qcd_scale'
p50
F0.24993849699900489
sS'qcd_others_scale'
p51
F1
sS'z_scale'
p52
F299.60752933925164
ssS'nOS'
p53
(dp54
S'qcd_z_scale'
p55
F1
sS'qcd_data_scale'
p56
F1
sS'qcd_scale_error'
p57
F0.058136184093798851
sS'z_scale_error'
p58
F22.736831857214941
sS'qcd_scale'
p59
F0.73911374751117898
sS'qcd_others_scale'
p60
F1
sS'z_scale'
p61
F263.78946274107312
ssssss.