(dp1
F12
(dp2
S'VBF'
p3
(dp4
I00
(dp5
S'TRACK'
p6
(dp7
S'SS_TRK'
p8
(dp9
S'qcd_z_scale'
p10
F1
sS'qcd_data_scale'
p11
F1
sS'qcd_scale_error'
p12
F0.17389049124230246
sS'z_scale_error'
p13
F0.076192777699539499
sS'qcd_scale'
p14
F1.8328990603518081
sS'qcd_others_scale'
p15
F1
sS'z_scale'
p16
F0.80311275017610906
ssS'nOS'
p17
(dp18
g10
F1
sg11
F1
sg12
F0.02930672788766988
sg13
F0.076192777699539499
sg14
F0.30890863337919339
sg15
F1
sg16
F0.80311275017610906
ssssI01
(dp19
S'TRACK'
p20
(dp21
S'SS_TRK'
p22
(dp23
g10
F1
sg11
F1
sg12
F0.17389049124230246
sg13
F20.34281110966063
sg14
F1.8328990603518081
sg15
F1
sg16
F214.42414189201293
ssS'nOS'
p24
(dp25
g10
F1
sg11
F1
sg12
F0.02930672788766988
sg13
F20.34281110966063
sg14
F0.30890863337919339
sg15
F1
sg16
F214.42414189201293
sssssS'CUT_PRESELECTION'
p26
(dp27
I00
(dp28
S'TRACK'
p29
(dp30
S'SS_TRK'
p31
(dp32
S'qcd_z_scale'
p33
F1
sS'qcd_data_scale'
p34
F1
sS'qcd_scale_error'
p35
F0.029028488625265737
sS'z_scale_error'
p36
F0.014069525622470295
sS'qcd_scale'
p37
F1.6892326005319465
sS'qcd_others_scale'
p38
F1
sS'z_scale'
p39
F0.81873712621780625
ssS'nOS'
p40
(dp41
g33
F1
sg34
F1
sg35
F0.0049080725316716801
sg36
F0.014069525622470295
sg37
F0.28561170487735887
sg38
F1
sg39
F0.81873712621780625
ssssI01
(dp42
S'TRACK'
p43
(dp44
S'SS_TRK'
p45
(dp46
g33
F1
sg34
F1
sg35
F0.029028488625265737
sg36
F4.5222530354927635
sg37
F1.6892326005319465
sg38
F1
sg39
F263.16000650340425
ssS'nOS'
p47
(dp48
g33
F1
sg34
F1
sg35
F0.0049080725316716801
sg36
F4.5222530354927635
sg37
F0.28561170487735887
sg38
F1
sg39
F263.16000650340425
sssssS'BOOSTED'
p49
(dp50
I00
(dp51
S'TRACK'
p52
(dp53
g8
(dp54
g10
F1
sg11
F1
sg12
F0.27441408465306127
sg13
F0.093987489064401339
sg14
F2.3146718459287134
sg15
F1
sg16
F0.7927807170756157
ssg17
(dp55
g10
F1
sg11
F1
sg12
F0.048186333995129088
sg13
F0.093987489064401339
sg14
F0.4064498030341851
sg15
F1
sg16
F0.7927807170756157
ssssI01
(dp56
S'TRACK'
p57
(dp58
g22
(dp59
g10
F1
sg11
F1
sg12
F0.27441408465306127
sg13
F32.377184475993076
sg14
F2.3146718459287134
sg15
F1
sg16
F273.1002581437117
ssg24
(dp60
g10
F1
sg11
F1
sg12
F0.048186333995129088
sg13
F32.377184475993076
sg14
F0.4064498030341851
sg15
F1
sg16
F273.1002581437117
sssssS'0J_NONBOOSTED'
p61
(dp62
I00
(dp63
S'TRACK'
p64
(dp65
S'SS_TRK'
p66
(dp67
g10
F1
sg11
F1
sg12
F0.1122791116294679
sg13
F0.0011462130227661048
sg14
F2.1942392875367012
sg15
F1
sg16
F0.022400120645232304
ssS'nOS'
p68
(dp69
g10
F1
sg11
F1
sg12
F0.0056527205426177224
sg13
F0.0011462130227661048
sg14
F0.11046953717455564
sg15
F1
sg16
F0.022400120645232304
ssssI01
(dp70
S'TRACK'
p71
(dp72
g22
(dp73
g10
F1
sg11
F1
sg12
F0.1122791116294679
sg13
F0.48402870982767859
sg14
F2.1942392875367012
sg15
F1
sg16
F9.4592377512261159
ssg24
(dp74
g10
F1
sg11
F1
sg12
F0.0056527205426177224
sg13
F0.48402870982767859
sg14
F0.11046953717455564
sg15
F1
sg16
F9.4592377512261159
sssssS'PRESELECTION'
p75
(dp76
I00
(dp77
S'TRACK'
p78
(dp79
S'SS_TRK'
p80
(dp81
S'qcd_z_scale'
p82
F1
sS'qcd_data_scale'
p83
F1
sS'qcd_scale_error'
p84
F0.0155417822115321
sS'z_scale_error'
p85
F0.010639218325939972
sS'qcd_scale'
p86
F1.4308468424580876
sS'qcd_others_scale'
p87
F1
sS'z_scale'
p88
F0.94233031836089554
ssS'nOS'
p89
(dp90
g82
F1
sg83
F1
sg84
F0.002865572799377842
sg85
F0.010639218325939972
sg86
F0.26381760701685791
sg87
F1
sg88
F0.94233031836089554
ssssI01
(dp91
S'TRACK'
p92
(dp93
S'SS_TRK'
p94
(dp95
g82
F1
sg83
F1
sg84
F0.0155417822115321
sg85
F3.5114067878761115
sg86
F1.4308468424580876
sg87
F1
sg88
F311.01016775323717
ssS'nOS'
p96
(dp97
g82
F1
sg83
F1
sg84
F0.002865572799377842
sg85
F3.5114067878761115
sg86
F0.26381760701685791
sg87
F1
sg88
F311.01016775323717
sssssS'1J_NONBOOSTED'
p98
(dp99
I00
(dp100
S'TRACK'
p101
(dp102
g8
(dp103
g10
F1
sg11
F1
sg12
F0.030047002932821299
sg13
F0.016328310335298617
sg14
F1.5504200893953133
sg15
F1
sg16
F0.84253795382949548
ssg17
(dp104
g10
F1
sg11
F1
sg12
F0.0051245102349080788
sg13
F0.016328310335298617
sg14
F0.26442383069875658
sg15
F1
sg16
F0.84253795382949548
ssssI01
(dp105
S'TRACK'
p106
(dp107
g22
(dp108
g10
F1
sg11
F1
sg12
F0.030047002932821299
sg13
F5.1475599469328683
sg14
F1.5504200893953133
sg15
F1
sg16
F265.61319180268805
ssg24
(dp109
g10
F1
sg11
F1
sg12
F0.0051245102349080788
sg13
F5.1475599469328683
sg14
F0.26442383069875658
sg15
F1
sg16
F265.61319180268805
ssssss.