(dp1
F11
(dp2
S'PRESELECTION'
p3
(dp4
I00
(dp5
S'DETA_TAU1_TAU2'
p6
(dp7
S'OS_NONISOL'
p8
(dp9
S'qcd_z_scale'
p10
F1
sS'qcd_data_scale'
p11
F1
sS'qcd_scale_error'
p12
F0.35908469221646894
sS'z_scale_error'
p13
F0.11980610226561912
sS'qcd_scale'
p14
F1.8394154244007044
sS'qcd_others_scale'
p15
F1
sS'z_scale'
p16
F1.3137372927479953
ssS'SS'
p17
(dp18
S'qcd_z_scale'
p19
F1
sS'qcd_data_scale'
p20
F1
sS'qcd_scale_error'
p21
F0.22800791356095393
sS'z_scale_error'
p22
F0.17308074583139343
sS'qcd_scale'
p23
F1.1439307209827498
sS'qcd_others_scale'
p24
F1
sS'z_scale'
p25
F1.0471471126021048
ssS'nOS_NONISOL'
p26
(dp27
S'qcd_z_scale'
p28
F1
sS'qcd_data_scale'
p29
F1
sS'qcd_scale_error'
p30
F0.10387997199567563
sS'z_scale_error'
p31
F0.1410786560946547
sS'qcd_scale'
p32
F0.65840321585167394
sS'qcd_others_scale'
p33
F1
sS'z_scale'
p34
F1.070440448785571
ssS'SS_NONISOL'
p35
(dp36
S'qcd_z_scale'
p37
F1
sS'qcd_data_scale'
p38
F1
sS'qcd_scale_error'
p39
F1.1448080403204661
sS'z_scale_error'
p40
F0.25174308288939656
sS'qcd_scale'
p41
F3.9387528544911556
sS'qcd_others_scale'
p42
F1
sS'z_scale'
p43
F1.0978325904001864
ssS'nOS_ISOL'
p44
(dp45
S'qcd_z_scale'
p46
F1
sS'qcd_data_scale'
p47
F1
sS'qcd_scale_error'
p48
F0.030314912894570469
sS'z_scale_error'
p49
F0.13473171362923878
sS'qcd_scale'
p50
F0.2100926448665644
sS'qcd_others_scale'
p51
F1
sS'z_scale'
p52
F1.0566865686547582
ssS'SS_ISOL'
p53
(dp54
S'qcd_z_scale'
p55
F1
sS'qcd_data_scale'
p56
F1
sS'qcd_scale_error'
p57
F0.34914485654529048
sS'z_scale_error'
p58
F0.18866295144060802
sS'qcd_scale'
p59
F1.6272207838926449
sS'qcd_others_scale'
p60
F1
sS'z_scale'
p61
F1.0197671838698874
ssS'NONISOL'
p62
(dp63
S'qcd_z_scale'
p64
F1
sS'qcd_data_scale'
p65
F1
sS'qcd_scale_error'
p66
F0.078387792461134462
sS'z_scale_error'
p67
F0.13568605754227062
sS'qcd_scale'
p68
F0.51187904817617191
sS'qcd_others_scale'
p69
F1
sS'z_scale'
p70
F1.0837230157962336
ssS'nOS'
p71
(dp72
S'qcd_z_scale'
p73
F1
sS'qcd_data_scale'
p74
F1
sS'qcd_scale_error'
p75
F0.022831526897208673
sS'z_scale_error'
p76
F0.13339445495204932
sS'qcd_scale'
p77
F0.15979860110963559
sS'qcd_others_scale'
p78
F1
sS'z_scale'
p79
F1.0569140572730724
ssssI01
(dp80
S'DETA_TAU1_TAU2'
p81
(dp82
S'OS_NONISOL'
p83
(dp84
S'qcd_z_scale'
p85
F1
sS'qcd_data_scale'
p86
F1
sS'qcd_scale_error'
p87
F0.46243747348371922
sS'z_scale_error'
p88
F28.760587929085574
sS'qcd_scale'
p89
F2.3223722703306038
sS'qcd_others_scale'
p90
F1
sS'z_scale'
p91
F275.18898708259445
ssS'SS'
p92
(dp93
S'qcd_z_scale'
p94
F1
sS'qcd_data_scale'
p95
F1
sS'qcd_scale_error'
p96
F0.23481885584130388
sS'z_scale_error'
p97
F39.691863047069099
sS'qcd_scale'
p98
F1.2109272672721598
sS'qcd_others_scale'
p99
F1
sS'z_scale'
p100
F223.43444924712202
ssS'nOS_NONISOL'
p101
(dp102
S'qcd_z_scale'
p103
F1
sS'qcd_data_scale'
p104
F1
sS'qcd_scale_error'
p105
F0.10307725554586904
sS'z_scale_error'
p106
F31.160557333237573
sS'qcd_scale'
p107
F0.67845915221051023
sS'qcd_others_scale'
p108
F1
sS'z_scale'
p109
F235.11578416400471
ssS'SS_NONISOL'
p110
(dp111
S'qcd_z_scale'
p112
F1
sS'qcd_data_scale'
p113
F1
sS'qcd_scale_error'
p114
F1.1470215459911197
sS'z_scale_error'
p115
F55.3630461494309
sS'qcd_scale'
p116
F4.0510459608468574
sS'qcd_others_scale'
p117
F1
sS'z_scale'
p118
F241.74104953293707
ssS'nOS_ISOL'
p119
(dp120
S'qcd_z_scale'
p121
F1
sS'qcd_data_scale'
p122
F1
sS'qcd_scale_error'
p123
F0.030693945435384454
sS'z_scale_error'
p124
F30.513353718445895
sS'qcd_scale'
p125
F0.21654154408839271
sS'qcd_others_scale'
p126
F1
sS'z_scale'
p127
F230.76767785578176
ssS'SS_ISOL'
p128
(dp129
S'qcd_z_scale'
p130
F1
sS'qcd_data_scale'
p131
F1
sS'qcd_scale_error'
p132
F0.3672127014233173
sS'z_scale_error'
p133
F44.112338708292519
sS'qcd_scale'
p134
F1.7525756303442535
sS'qcd_others_scale'
p135
F1
sS'z_scale'
p136
F213.13333658677482
ssS'NONISOL'
p137
(dp138
S'qcd_z_scale'
p139
F1
sS'qcd_data_scale'
p140
F1
sS'qcd_scale_error'
p141
F0.078907558244568646
sS'z_scale_error'
p142
F30.00794282820608
sS'qcd_scale'
p143
F0.53522384100024056
sS'qcd_others_scale'
p144
F1
sS'z_scale'
p145
F237.69810834762947
ssS'nOS'
p146
(dp147
S'qcd_z_scale'
p148
F1
sS'qcd_data_scale'
p149
F1
sS'qcd_scale_error'
p150
F0.023032585717746534
sS'z_scale_error'
p151
F30.015027373620878
sS'qcd_scale'
p152
F0.16514172038545935
sS'qcd_others_scale'
p153
F1
sS'z_scale'
p154
F230.55756004903861
ssssssF12
(dp155
S'PRESELECTION'
p156
(dp157
I00
(dp158
S'DETA_TAU1_TAU2'
p159
(dp160
S'OS_NONISOL'
p161
(dp162
S'qcd_z_scale'
p163
F1
sS'qcd_data_scale'
p164
F1
sS'qcd_scale_error'
p165
F0.046402795498708758
sS'z_scale_error'
p166
F0.041101979275190548
sS'qcd_scale'
p167
F0.91530881373325335
sS'qcd_others_scale'
p168
F1
sS'z_scale'
p169
F0.96242251178946736
ssS'SS'
p170
(dp171
S'qcd_z_scale'
p172
F1
sS'qcd_data_scale'
p173
F1
sS'qcd_scale_error'
p174
F0.03503701874064688
sS'z_scale_error'
p175
F0.041909728729252901
sS'qcd_scale'
p176
F0.67152280258658881
sS'qcd_others_scale'
p177
F1
sS'z_scale'
p178
F0.96988994629375325
ssS'nOS_NONISOL'
p179
(dp180
S'qcd_z_scale'
p181
F1
sS'qcd_data_scale'
p182
F1
sS'qcd_scale_error'
p183
F0.018626586778593298
sS'z_scale_error'
p184
F0.044074946818396639
sS'qcd_scale'
p185
F0.35565635909918247
sS'qcd_others_scale'
p186
F1
sS'z_scale'
p187
F0.92832638620046626
ssS'SS_NONISOL'
p188
(dp189
S'qcd_z_scale'
p190
F1
sS'qcd_data_scale'
p191
F1
sS'qcd_scale_error'
p192
F0.065153062606162715
sS'z_scale_error'
p193
F0.043780181009300367
sS'qcd_scale'
p194
F1.2511687802069607
sS'qcd_others_scale'
p195
F1
sS'z_scale'
p196
F0.92929264085606522
ssS'nOS_ISOL'
p197
(dp198
S'qcd_z_scale'
p199
F1
sS'qcd_data_scale'
p200
F1
sS'qcd_scale_error'
p201
F0.034490535588492736
sS'z_scale_error'
p202
F0.042841506529529658
sS'qcd_scale'
p203
F0.64514231164893676
sS'qcd_others_scale'
p204
F1
sS'z_scale'
p205
F0.97174158128657628
ssS'SS_ISOL'
p206
(dp207
S'qcd_z_scale'
p208
F1
sS'qcd_data_scale'
p209
F1
sS'qcd_scale_error'
p210
F0.093114264634410485
sS'z_scale_error'
p211
F0.046533438383410453
sS'qcd_scale'
p212
F1.4528623416405575
sS'qcd_others_scale'
p213
F1
sS'z_scale'
p214
F1.0167585897169811
ssS'NONISOL'
p215
(dp216
S'qcd_z_scale'
p217
F1
sS'qcd_data_scale'
p218
F1
sS'qcd_scale_error'
p219
F0.013318327996568749
sS'z_scale_error'
p220
F0.043399160677197436
sS'qcd_scale'
p221
F0.25675606899932846
sS'qcd_others_scale'
p222
F1
sS'z_scale'
p223
F0.93366369212083944
ssS'nOS'
p224
(dp225
S'qcd_z_scale'
p226
F1
sS'qcd_data_scale'
p227
F1
sS'qcd_scale_error'
p228
F0.012116510871066483
sS'z_scale_error'
p229
F0.043739457994705723
sS'qcd_scale'
p230
F0.22964115331124338
sS'qcd_others_scale'
p231
F1
sS'z_scale'
p232
F0.94191725889125577
ssssI01
(dp233
S'DETA_TAU1_TAU2'
p234
(dp235
S'OS_NONISOL'
p236
(dp237
S'qcd_z_scale'
p238
F1
sS'qcd_data_scale'
p239
F1
sS'qcd_scale_error'
p240
F0.046827779271100725
sS'z_scale_error'
p241
F12.998011348632055
sS'qcd_scale'
p242
F0.93579658908164876
sS'qcd_others_scale'
p243
F1
sS'z_scale'
p244
F303.8707561762314
ssS'SS'
p245
(dp246
S'qcd_z_scale'
p247
F1
sS'qcd_data_scale'
p248
F1
sS'qcd_scale_error'
p249
F0.034978746130254153
sS'z_scale_error'
p250
F13.313107106753014
sS'qcd_scale'
p251
F0.67977637951740477
sS'qcd_others_scale'
p252
F1
sS'z_scale'
p253
F304.84846105337715
ssS'nOS_NONISOL'
p254
(dp255
S'qcd_z_scale'
p256
F1
sS'qcd_data_scale'
p257
F1
sS'qcd_scale_error'
p258
F0.018561029981391763
sS'z_scale_error'
p259
F13.931184389126692
sS'qcd_scale'
p260
F0.35976133282164341
sS'qcd_others_scale'
p261
F1
sS'z_scale'
p262
F292.50670520388655
ssS'SS_NONISOL'
p263
(dp264
S'qcd_z_scale'
p265
F1
sS'qcd_data_scale'
p266
F1
sS'qcd_scale_error'
p267
F0.065002977322006716
sS'z_scale_error'
p268
F13.881711905648904
sS'qcd_scale'
p269
F1.2689234385691255
sS'qcd_others_scale'
p270
F1
sS'z_scale'
p271
F291.47832289759373
ssS'nOS_ISOL'
p272
(dp273
S'qcd_z_scale'
p274
F1
sS'qcd_data_scale'
p275
F1
sS'qcd_scale_error'
p276
F0.03429344521339131
sS'z_scale_error'
p277
F13.58225797616282
sS'qcd_scale'
p278
F0.65021063388986622
sS'qcd_others_scale'
p279
F1
sS'z_scale'
p280
F306.02591871142408
ssS'SS_ISOL'
p281
(dp282
S'qcd_z_scale'
p283
F1
sS'qcd_data_scale'
p284
F1
sS'qcd_scale_error'
p285
F0.092842560490748419
sS'z_scale_error'
p286
F14.777502008028758
sS'qcd_scale'
p287
F1.4740516392376095
sS'qcd_others_scale'
p288
F1
sS'z_scale'
p289
F319.24827645721371
ssS'NONISOL'
p290
(dp291
S'qcd_z_scale'
p292
F1
sS'qcd_data_scale'
p293
F1
sS'qcd_scale_error'
p294
F0.013311343384053639
sS'z_scale_error'
p295
F13.714110164939916
sS'qcd_scale'
p296
F0.26031516426767937
sS'qcd_others_scale'
p297
F1
sS'z_scale'
p298
F294.51149887995979
ssS'nOS'
p299
(dp300
S'qcd_z_scale'
p301
F1
sS'qcd_data_scale'
p302
F1
sS'qcd_scale_error'
p303
F0.012063141560692945
sS'z_scale_error'
p304
F13.83601541320555
sS'qcd_scale'
p305
F0.2320133672270849
sS'qcd_others_scale'
p306
F1
sS'z_scale'
p307
F296.7308969730426
ssssss.