(dp1
F11
(dp2
S'PRESELECTION'
p3
(dp4
I01
(dp5
S'DETA_TAU1_TAU2'
p6
(dp7
S'SS'
p8
(dp9
S'qcd_z_scale'
p10
F1
sS'qcd_data_scale'
p11
F1
sS'qcd_scale_error'
p12
F0.22496893641941437
sS'z_scale_error'
p13
F45.991291807709921
sS'qcd_scale'
p14
F1.4514643379119172
sS'qcd_others_scale'
p15
F1
sS'z_scale'
p16
F346.1000754176244
ssS'NONISOL'
p17
(dp18
S'qcd_z_scale'
p19
F1
sS'qcd_data_scale'
p20
F1
sS'qcd_scale_error'
p21
F0.047513761194711283
sS'z_scale_error'
p22
F37.556223412123749
sS'qcd_scale'
p23
F0.38884533808302324
sS'qcd_others_scale'
p24
F1
sS'z_scale'
p25
F356.16793542297734
ssS'nOS'
p26
(dp27
S'qcd_z_scale'
p28
F1
sS'qcd_data_scale'
p29
F1
sS'qcd_scale_error'
p30
F0.019500731070975649
sS'z_scale_error'
p31
F36.148154309844742
sS'qcd_scale'
p32
F0.16880393760566242
sS'qcd_others_scale'
p33
F1
sS'z_scale'
p34
F358.40094003183583
ssssssF12
(dp35
S'PRESELECTION'
p36
(dp37
I00
(dp38
S'DETA_TAU1_TAU2'
p39
(dp40
S'nOS'
p41
(dp42
S'qcd_z_scale'
p43
F1
sS'qcd_data_scale'
p44
F1
sS'qcd_scale_error'
p45
F0.059067074733853565
sS'z_scale_error'
p46
F0.071273608025150897
sS'qcd_scale'
p47
F0.70873324482957945
sS'qcd_others_scale'
p48
F1
sS'z_scale'
p49
F0.85936338916783517
ssssI01
(dp50
S'DETA_TAU1_TAU2'
p51
(dp52
S'SS'
p53
(dp54
S'qcd_z_scale'
p55
F1
sS'qcd_data_scale'
p56
F1
sS'qcd_scale_error'
p57
F0.075799411706876638
sS'z_scale_error'
p58
F12.119057938932357
sS'qcd_scale'
p59
F1.4509679300465124
sS'qcd_others_scale'
p60
F1
sS'z_scale'
p61
F317.5542274685763
ssS'NONISOL'
p62
(dp63
S'qcd_z_scale'
p64
F1
sS'qcd_data_scale'
p65
F1
sS'qcd_scale_error'
p66
F0.01213677701906396
sS'z_scale_error'
p67
F12.095771913260929
sS'qcd_scale'
p68
F0.25250342613771215
sS'qcd_others_scale'
p69
F1
sS'z_scale'
p70
F300.54952849166119
ssS'nOS'
p71
(dp72
S'qcd_z_scale'
p73
F1
sS'qcd_data_scale'
p74
F1
sS'qcd_scale_error'
p75
F0.03333833816756071
sS'z_scale_error'
p76
F12.52071476416101
sS'qcd_scale'
p77
F0.65162842758644246
sS'qcd_others_scale'
p78
F1
sS'z_scale'
p79
F305.19821592834177
ssssss.