(dp1
F12
(dp2
S'PRESELECTION'
p3
(dp4
I01
(dp5
S'DETA_TAU1_TAU2'
p6
(dp7
S'nOS'
p8
(dp9
S'qcd_z_scale'
p10
F1
sS'qcd_data_scale'
p11
F1
sS'qcd_scale_error'
p12
F0.058136184093798851
sS'z_scale_error'
p13
F22.736831857214941
sS'qcd_scale'
p14
F0.73911374751117898
sS'qcd_others_scale'
p15
F1
sS'z_scale'
p16
F263.78946274107312
ssssss.