(dp1
F11
(dp2
S'PRESELECTION'
p3
(dp4
I00
(dp5
S'DETA_TAU1_TAU2'
p6
(dp7
S'SS'
p8
(dp9
S'qcd_z_scale'
p10
F1
sS'qcd_data_scale'
p11
F1
sS'qcd_scale_error'
p12
F0.22224889613893883
sS'z_scale_error'
p13
F0.16283975347159466
sS'qcd_scale'
p14
F1.3941839714335287
sS'qcd_others_scale'
p15
F1
sS'z_scale'
p16
F1.2958791771221798
ssS'OS_NONISOL'
p17
(dp18
S'qcd_z_scale'
p19
F1
sS'qcd_data_scale'
p20
F1
sS'qcd_scale_error'
p21
F0.32692892877852708
sS'z_scale_error'
p22
F0.16917284361313703
sS'qcd_scale'
p23
F2.1171295139632638
sS'qcd_others_scale'
p24
F1
sS'z_scale'
p25
F1.1978311686629233
ssS'nOS_NONISOL'
p26
(dp27
S'qcd_z_scale'
p28
F1
sS'qcd_data_scale'
p29
F1
sS'qcd_scale_error'
p30
F0.059076558311600399
sS'z_scale_error'
p31
F0.13868436642287843
sS'qcd_scale'
p32
F0.45289509042125325
sS'qcd_others_scale'
p33
F1
sS'z_scale'
p34
F1.3340609885926196
ssS'NONISOL'
p35
(dp36
S'qcd_z_scale'
p37
F1
sS'qcd_data_scale'
p38
F1
sS'qcd_scale_error'
p39
F0.047709747259689177
sS'z_scale_error'
p40
F0.13859032227024912
sS'qcd_scale'
p41
F0.37988095024082041
sS'qcd_others_scale'
p42
F1
sS'z_scale'
p43
F1.2952016822309909
ssS'nOS'
p44
(dp45
S'qcd_z_scale'
p46
F1
sS'qcd_data_scale'
p47
F1
sS'qcd_scale_error'
p48
F0.01942583265297014
sS'z_scale_error'
p49
F0.13063589830599201
sS'qcd_scale'
p50
F0.16536590454697539
sS'qcd_others_scale'
p51
F1
sS'z_scale'
p52
F1.3156210180358556
ssssI01
(dp53
S'DETA_TAU1_TAU2'
p54
(dp55
S'OS_NONISOL'
p56
(dp57
S'qcd_z_scale'
p58
F1
sS'qcd_data_scale'
p59
F1
sS'qcd_scale_error'
p60
F0.37120600060347686
sS'z_scale_error'
p61
F46.892566743658449
sS'qcd_scale'
p62
F2.3230902497509609
sS'qcd_others_scale'
p63
F1
sS'z_scale'
p64
F329.24740815686761
ssS'SS'
p65
(dp66
S'qcd_z_scale'
p67
F1
sS'qcd_data_scale'
p68
F1
sS'qcd_scale_error'
p69
F0.2249916187340171
sS'z_scale_error'
p70
F46.002794253095459
sS'qcd_scale'
p71
F1.4545581366358158
sS'qcd_others_scale'
p72
F1
sS'z_scale'
p73
F346.1852688239004
ssS'nOS_NONISOL'
p74
(dp75
S'qcd_z_scale'
p76
F1
sS'qcd_data_scale'
p77
F1
sS'qcd_scale_error'
p78
F0.058501483679728315
sS'z_scale_error'
p79
F37.792599326054656
sS'qcd_scale'
p80
F0.46287397704366912
sS'qcd_others_scale'
p81
F1
sS'z_scale'
p82
F364.81483319967646
ssS'SS_NONISOL'
p83
(dp84
S'qcd_z_scale'
p85
F1
sS'qcd_data_scale'
p86
F1
sS'qcd_scale_error'
p87
F0.54012442912449654
sS'z_scale_error'
p88
F48.697759558208986
sS'qcd_scale'
p89
F2.7533722590899385
sS'qcd_others_scale'
p90
F1
sS'z_scale'
p91
F385.81268224357427
ssS'NONISOL'
p92
(dp93
S'qcd_z_scale'
p94
F1
sS'qcd_data_scale'
p95
F1
sS'qcd_scale_error'
p96
F0.047512008028179904
sS'z_scale_error'
p97
F37.570049728144774
sS'qcd_scale'
p98
F0.38986134614061313
sS'qcd_others_scale'
p99
F1
sS'z_scale'
p100
F356.11037865255679
ssS'nOS'
p101
(dp102
S'qcd_z_scale'
p103
F1
sS'qcd_data_scale'
p104
F1
sS'qcd_scale_error'
p105
F0.019497684857764125
sS'z_scale_error'
p106
F36.15528849086455
sS'qcd_scale'
p107
F0.16926842849103327
sS'qcd_others_scale'
p108
F1
sS'z_scale'
p109
F358.34926086153689
ssssssF12
(dp110
S'PRESELECTION'
p111
(dp112
I00
(dp113
S'DETA_TAU1_TAU2'
p114
(dp115
S'OS_NONISOL'
p116
(dp117
S'qcd_z_scale'
p118
F1
sS'qcd_data_scale'
p119
F1
sS'qcd_scale_error'
p120
F0.045168987739484752
sS'z_scale_error'
p121
F0.037754157982923718
sS'qcd_scale'
p122
F0.89210599846846994
sS'qcd_others_scale'
p123
F1
sS'z_scale'
p124
F0.9665934266326911
ssS'SS'
p125
(dp126
S'qcd_z_scale'
p127
F1
sS'qcd_data_scale'
p128
F1
sS'qcd_scale_error'
p129
F0.075497692683293802
sS'z_scale_error'
p130
F0.037483896565412227
sS'qcd_scale'
p131
F1.4338202499539163
sS'qcd_others_scale'
p132
F1
sS'z_scale'
p133
F1.0004419602505112
ssS'nOS_NONISOL'
p134
(dp135
S'qcd_z_scale'
p136
F1
sS'qcd_data_scale'
p137
F1
sS'qcd_scale_error'
p138
F0.017462779686162579
sS'z_scale_error'
p139
F0.039278550638275213
sS'qcd_scale'
p140
F0.34437476750224466
sS'qcd_others_scale'
p141
F1
sS'z_scale'
p142
F0.9373412474820596
ssS'SS_NONISOL'
p143
(dp144
S'qcd_z_scale'
p145
F1
sS'qcd_data_scale'
p146
F1
sS'qcd_scale_error'
p147
F0.063992850547760924
sS'z_scale_error'
p148
F0.040873082651340875
sS'qcd_scale'
p149
F1.215291579284423
sS'qcd_others_scale'
p150
F1
sS'z_scale'
p151
F0.93182997393263456
ssS'NONISOL'
p152
(dp153
S'qcd_z_scale'
p154
F1
sS'qcd_data_scale'
p155
F1
sS'qcd_scale_error'
p156
F0.012020149730495252
sS'z_scale_error'
p157
F0.037566479688474499
sS'qcd_scale'
p158
F0.24769722317104675
sS'qcd_others_scale'
p159
F1
sS'z_scale'
p160
F0.94600724036791306
ssS'OS'
p161
(dp162
S'qcd_z_scale'
p163
F1
sS'qcd_data_scale'
p164
F1
sS'qcd_scale_error'
p165
F0.051122521550678118
sS'z_scale_error'
p166
F0.042180743082397339
sS'qcd_scale'
p167
F1.0000128224346507
sS'qcd_others_scale'
p168
F1
sS'z_scale'
p169
F0.87715311239825233
ssS'nOS'
p170
(dp171
S'qcd_z_scale'
p172
F1
sS'qcd_data_scale'
p173
F1
sS'qcd_scale_error'
p174
F0.033144532482679116
sS'z_scale_error'
p175
F0.038734959394840028
sS'qcd_scale'
p176
F0.64130076773940625
sS'qcd_others_scale'
p177
F1
sS'z_scale'
p178
F0.96417265863215862
ssssI01
(dp179
S'DETA_TAU1_TAU2'
p180
(dp181
S'OS_NONISOL'
p182
(dp183
S'qcd_z_scale'
p184
F1
sS'qcd_data_scale'
p185
F1
sS'qcd_scale_error'
p186
F0.046261905726791119
sS'z_scale_error'
p187
F12.204189777697241
sS'qcd_scale'
p188
F0.92353919406351859
sS'qcd_others_scale'
p189
F1
sS'z_scale'
p190
F305.99585770773763
ssS'SS'
p191
(dp192
S'qcd_z_scale'
p193
F1
sS'qcd_data_scale'
p194
F1
sS'qcd_scale_error'
p195
F0.075668014858135971
sS'z_scale_error'
p196
F12.114197911898264
sS'qcd_scale'
p197
F1.4503165520119514
sS'qcd_others_scale'
p198
F1
sS'z_scale'
p199
F317.59079367041613
ssS'nOS_NONISOL'
p200
(dp201
S'qcd_z_scale'
p202
F1
sS'qcd_data_scale'
p203
F1
sS'qcd_scale_error'
p204
F0.016809562958609168
sS'z_scale_error'
p205
F12.224458376575715
sS'qcd_scale'
p206
F0.34713516206883649
sS'qcd_others_scale'
p207
F1
sS'z_scale'
p208
F299.40655038297024
ssS'SS_NONISOL'
p209
(dp210
S'qcd_z_scale'
p211
F1
sS'qcd_data_scale'
p212
F1
sS'qcd_scale_error'
p213
F0.06406341059898342
sS'z_scale_error'
p214
F13.108143928489117
sS'qcd_scale'
p215
F1.2351929921927378
sS'qcd_others_scale'
p216
F1
sS'z_scale'
p217
F295.06102139253983
ssS'NONISOL'
p218
(dp219
S'qcd_z_scale'
p220
F1
sS'qcd_data_scale'
p221
F1
sS'qcd_scale_error'
p222
F0.01212664457844494
sS'z_scale_error'
p223
F12.092421189570878
sS'qcd_scale'
p224
F0.25250630579710193
sS'qcd_others_scale'
p225
F1
sS'z_scale'
p226
F300.64790209711339
ssS'OS'
p227
(dp228
S'qcd_z_scale'
p229
F1
sS'qcd_data_scale'
p230
F1
sS'qcd_scale_error'
p231
F0.0499659372252537
sS'z_scale_error'
p232
F13.25154593350697
sS'qcd_scale'
p233
F0.99998889450441042
sS'qcd_others_scale'
p234
F1
sS'z_scale'
p235
F281.89070135225347
ssS'nOS'
p236
(dp237
S'qcd_z_scale'
p238
F1
sS'qcd_data_scale'
p239
F1
sS'qcd_scale_error'
p240
F0.033309319191124141
sS'z_scale_error'
p241
F12.518594770039073
sS'qcd_scale'
p242
F0.65178271138697663
sS'qcd_others_scale'
p243
F1
sS'z_scale'
p244
F305.20560784333651
ssssss.