(dp1
F12
(dp2
S'PRESELECTION'
p3
(dp4
I00
(dp5
S'DETA_TAU1_TAU2'
p6
(dp7
S'nOS'
p8
(dp9
S'qcd_z_scale'
p10
F1
sS'qcd_data_scale'
p11
F1
sS'qcd_scale_error'
p12
F0.059067074733853565
sS'z_scale_error'
p13
F0.071273608025150897
sS'qcd_scale'
p14
F0.70873324482957945
sS'qcd_others_scale'
p15
F1
sS'z_scale'
p16
F0.85936338916783517
ssssI01
(dp17
S'DETA_TAU1_TAU2'
p18
(dp19
S'nOS'
p20
(dp21
S'qcd_z_scale'
p22
F1
sS'qcd_data_scale'
p23
F1
sS'qcd_scale_error'
p24
F0.058136184093798851
sS'z_scale_error'
p25
F22.736831857214941
sS'qcd_scale'
p26
F0.73911374751117898
sS'qcd_others_scale'
p27
F1
sS'z_scale'
p28
F263.78946274107312
ssssss.