(dp1
F12
(dp2
S'VBF'
p3
(dp4
I00
(dp5
S'TRACK'
p6
(dp7
S'SS_TRK'
p8
(dp9
S'qcd_z_scale'
p10
F1
sS'qcd_data_scale'
p11
F1.6014871899609096
sS'z_scale_error'
p12
F0
sS'qcd_others_scale'
p13
F1
sS'z_scale'
p14
F1.017757992408302
sS'qcd_data_scale_error'
p15
F0
ssS'nOS'
p16
(dp17
g10
F0.082423669106790845
sg11
F0.2636093381240398
sg12
F0
sg13
F0.20913414000603772
sg14
F1.017757992408302
sg15
F0
ssssI01
(dp18
S'TRACK'
p19
(dp20
S'SS_TRK'
p21
(dp22
S'qcd_z_scale'
p23
F1
sS'qcd_data_scale'
p24
F1.716105365703499
sS'z_scale_error'
p25
F23.883342678980409
sS'qcd_others_scale'
p26
F1
sS'z_scale'
p27
F231.21902616118322
sS'qcd_data_scale_error'
p28
F0.11743951197353253
ssS'nOS'
p29
(dp30
g23
F0.061302501022707234
sg24
F0.28247581525472881
sg25
F23.883342678980409
sg26
F0.20913414000603772
sg27
F231.21902616118322
sg28
F0.019330877084136281
sssssS'CUT_PRESELECTION'
p31
(dp32
I00
(dp33
S'TRACK'
p34
(dp35
S'SS_TRK'
p36
(dp37
S'qcd_z_scale'
p38
F1
sS'qcd_data_scale'
p39
F1.711519416682274
sS'z_scale_error'
p40
F0.029171050955214939
sS'qcd_others_scale'
p41
F1
sS'z_scale'
p42
F0.73631805617125634
sS'qcd_data_scale_error'
p43
F0.044832849133851264
ssS'nOS'
p44
(dp45
g38
F0.073943595538752918
sg39
F0.28538840586704373
sg40
F0.029171050955214939
sg41
F0.17979106925292315
sg42
F0.73631805617125634
sg43
F0.0074756822622496152
ssssI01
(dp46
S'TRACK'
p47
(dp48
S'SS_TRK'
p49
(dp50
S'qcd_z_scale'
p51
F1
sS'qcd_data_scale'
p52
F1.3400517752866665
sS'z_scale_error'
p53
F18.696088958791922
sS'qcd_others_scale'
p54
F1
sS'z_scale'
p55
F337.827841873659
sS'qcd_data_scale_error'
p56
F0.054712336527377205
ssS'nOS'
p57
(dp58
g51
F0.058024538016925892
sg52
F0.22344779509992485
sg53
F18.696088958791922
sg54
F0.17979106925292315
sg55
F337.827841873659
sg56
F0.009123043741494424
sssssS'BOOSTED'
p59
(dp60
I00
(dp61
S'TRACK'
p62
(dp63
g8
(dp64
g10
F1
sg11
F2.0376615166624417
sg12
F0
sg13
F1
sg14
F0.80576830738851968
sg15
F0
ssg16
(dp65
g10
F0.082247790299799159
sg11
F0.34589933153220459
sg12
F0
sg13
F0.18414405823491881
sg14
F0.80576830738851968
sg15
F0
ssssI01
(dp66
S'TRACK'
p67
(dp68
g21
(dp69
g23
F1
sg24
F1.5695366943447875
sg25
F48.708895599213868
sg26
F1
sg27
F291.78425724914405
sg28
F0.21702708642345495
ssg29
(dp70
g23
F0.053990583470958073
sg24
F0.26643369811408429
sg25
F48.708895599213868
sg26
F0.18414405823491881
sg27
F291.78425724914405
sg28
F0.036841017757067968
sssssS'0J_NONBOOSTED'
p71
(dp72
I00
(dp73
S'TRACK'
p74
(dp75
S'SS_TRK'
p76
(dp77
g10
F1
sg11
F1.3833565173495868
sg12
F0
sg13
F1
sg14
F0.88557251460514308
sg15
F0
ssS'nOS'
p78
(dp79
g10
F0.078390256139410294
sg11
F0.25966034417331602
sg12
F0
sg13
F0.089577571293453409
sg14
F0.88557251460514308
sg15
F0
ssssI01
(dp80
S'TRACK'
p81
(dp82
g21
(dp83
g23
F1
sg24
F1.4631804656042593
sg25
F5.1726304512098533
sg26
F1
sg27
F261.92875737428585
sg28
F0.01758196531590954
ssg29
(dp84
g23
F0.051235831974096133
sg24
F0.27464354887660747
sg25
F5.1726304512098533
sg26
F0.089577571293453409
sg27
F261.92875737428585
sg28
F0.0033001898700121372
sssssS'PRESELECTION'
p85
(dp86
I00
(dp87
S'TRACK'
p88
(dp89
S'SS_TRK'
p90
(dp91
S'qcd_z_scale'
p92
F1
sS'qcd_data_scale'
p93
F1.6202472275772535
sS'z_scale_error'
p94
F0.017150091435644027
sS'qcd_others_scale'
p95
F1
sS'z_scale'
p96
F0.75942379987101805
sS'qcd_data_scale_error'
p97
F0.022444666432108865
ssS'nOS'
p98
(dp99
g92
F0.081068574900307389
sg93
F0.24246041641453767
sg94
F0.017150091435644027
sg95
F0.19862009582377974
sg96
F0.75942379987101805
sg97
F0.0033587116069637209
ssssI01
(dp100
S'TRACK'
p101
(dp102
S'SS_TRK'
p103
(dp104
g92
F1
sg93
F1.6202472275772535
sg94
F5.6559227141754258
sg95
F1
sg96
F250.45011191303934
sg97
F0.022444666432108865
ssS'nOS'
p105
(dp106
g92
F0.081068574900307389
sg93
F0.24246041641453767
sg94
F5.6559227141754258
sg95
F0.19862009582377974
sg96
F250.45011191303934
sg97
F0.0033587116069637209
sssssS'1J_NONBOOSTED'
p107
(dp108
I00
(dp109
S'TRACK'
p110
(dp111
g8
(dp112
g10
F1
sg11
F1.3483642225036321
sg12
F0
sg13
F1
sg14
F1.0791213566865374
sg15
F0
ssg16
(dp113
g10
F0.082035921559846889
sg11
F0.22808552000509735
sg12
F0
sg13
F0.17477458902279891
sg14
F1.0791213566865374
sg15
F0
ssssI01
(dp114
S'TRACK'
p115
(dp116
g21
(dp117
g23
F1
sg24
F1.3600976320088558
sg25
F10.503484775534613
sg26
F1
sg27
F335.58810454256093
sg28
F0.028601646116371501
ssg29
(dp118
g23
F0.057593210321543332
sg24
F0.2300703107343133
sg25
F10.503484775534613
sg26
F0.17477458902279891
sg27
F335.58810454256093
sg28
F0.004838174447658777
ssssss.