(dp1
F12
(dp2
S'BOOSTED'
p3
(dp4
I01
(dp5
S'TRACK'
p6
(dp7
S'SS_TRK'
p8
(F1.1252326774048638
F0.36467837464245706
F322.53805436761087
F20.574968675834821
tp9
sS'nOS'
p10
(F0.21364035561429442
F0.069239028698617366
F322.53805436761087
F20.574968675834821
tp11
ssssS'1J_NONBOOSTED'
p12
(dp13
I01
(dp14
S'TRACK'
p15
(dp16
g8
(F1.1161250856914207
F0.047843427471868427
F431.30355176418044
F20.645723552315594
tp17
sg10
(F0.19263205601978145
F0.0082572983253306632
F431.30355176418044
F20.645723552315594
tp18
ssssS'VBF'
p19
(dp20
I01
(dp21
S'TRACK'
p22
(dp23
g8
(F1.1474948323416139
F0.1580350436705743
F367.46709530334209
F37.359755909725145
tp24
sS'nOS'
p25
(F0.19604261783818286
F0.026999340474700796
F367.46709530334209
F37.359755909725145
tp26
ssssS'0J_NONBOOSTED'
p27
(dp28
I01
(dp29
S'TRACK'
p30
(dp31
g8
(F1.2064605500288574
F0.041602296445588882
F439.66112828888106
F21.399882422385389
tp32
sg10
(F0.23276290099398075
F0.008026347159428647
F439.66112828888106
F21.399882422385389
tp33
ssssS'PRESELECTION'
p34
(dp35
I01
(dp36
S'TRACK'
p37
(dp38
S'SS_TRK'
p39
(F1.1824207203922164
F0.041154186425523043
F422.36682974204848
F17.260514101161533
tp40
sS'nOS'
p41
(F0.22090342962137105
F0.0076885500802622419
F422.36682974204848
F17.260514101161533
tp42
sssss.