(dp1
F11
(dp2
S'PRESELECTION'
p3
(dp4
I00
(dp5
S'DETA_TAU1_TAU2'
p6
(dp7
S'OS_NONISOL'
p8
(dp9
S'qcd_z_scale'
p10
F1
sS'qcd_data_scale'
p11
F1
sS'qcd_scale_error'
p12
F0.32674394634858389
sS'z_scale_error'
p13
F0.16880866757807467
sS'qcd_scale'
p14
F2.1112727782137135
sS'qcd_others_scale'
p15
F1
sS'z_scale'
p16
F1.1987672152803257
ssS'OS_DOUBLE_NONISOL'
p17
(dp18
S'qcd_z_scale'
p19
F1
sS'qcd_data_scale'
p20
F1
sS'qcd_scale_error'
p21
F198.20633041375703
sS'z_scale_error'
p22
F13.543451001660356
sS'qcd_scale'
p23
F17.965278499318114
sS'qcd_others_scale'
p24
F1
sS'z_scale'
p25
F1.2275686078178334
ssS'SS_DOUBLE_NONISOL'
p26
(dp27
S'qcd_z_scale'
p28
F1
sS'qcd_data_scale'
p29
F1
sS'qcd_scale_error'
p30
F9.1403302575212315
sS'z_scale_error'
p31
F0.3463693456343393
sS'qcd_scale'
p32
F17.66010823702651
sS'qcd_others_scale'
p33
F1
sS'z_scale'
p34
F1.6875113066711092
ssS'SS'
p35
(dp36
S'qcd_z_scale'
p37
F1
sS'qcd_data_scale'
p38
F1
sS'qcd_scale_error'
p39
F0.2219843600697583
sS'z_scale_error'
p40
F0.16264433644905454
sS'qcd_scale'
p41
F1.3899096388789671
sS'qcd_others_scale'
p42
F1
sS'z_scale'
p43
F1.295126361913135
ssS'nOS_NONISOL'
p44
(dp45
S'qcd_z_scale'
p46
F1
sS'qcd_data_scale'
p47
F1
sS'qcd_scale_error'
p48
F0.059053472416592999
sS'z_scale_error'
p49
F0.13860066109114602
sS'qcd_scale'
p50
F0.45146327927051499
sS'qcd_others_scale'
p51
F1
sS'z_scale'
p52
F1.3330789243366978
ssS'SS_NONISOL'
p53
(dp54
S'qcd_z_scale'
p55
F1
sS'qcd_data_scale'
p56
F1
sS'qcd_scale_error'
p57
F0.5258624376002019
sS'z_scale_error'
p58
F0.17558899727725144
sS'qcd_scale'
p59
F2.6076006703491932
sS'qcd_others_scale'
p60
F1
sS'z_scale'
p61
F1.4280051429351468
ssS'NONISOL'
p62
(dp63
S'qcd_z_scale'
p64
F1
sS'qcd_data_scale'
p65
F1
sS'qcd_scale_error'
p66
F0.047678537482771247
sS'z_scale_error'
p67
F0.13847426558791956
sS'qcd_scale'
p68
F0.37850534934990121
sS'qcd_others_scale'
p69
F1
sS'z_scale'
p70
F1.2951720914940796
ssS'DOUBLE_NONISOL'
p71
(dp72
S'qcd_z_scale'
p73
F1
sS'qcd_data_scale'
p74
F1
sS'qcd_scale_error'
p75
F0.79988091614993284
sS'z_scale_error'
p76
F0.13244352721274547
sS'qcd_scale'
p77
F4.18440008168366
sS'qcd_others_scale'
p78
F1
sS'z_scale'
p79
F1.5732967763228962
ssS'nOS_DOUBLE_NONISOL'
p80
(dp81
S'qcd_z_scale'
p82
F1
sS'qcd_data_scale'
p83
F1
sS'qcd_scale_error'
p84
F1.0637365434988533
sS'z_scale_error'
p85
F0.14133386742551413
sS'qcd_scale'
p86
F5.0697589748923093
sS'qcd_others_scale'
p87
F1
sS'z_scale'
p88
F1.5780054108989365
ssS'nOS'
p89
(dp90
S'qcd_z_scale'
p91
F1
sS'qcd_data_scale'
p92
F1
sS'qcd_scale_error'
p93
F0.019423556900496058
sS'z_scale_error'
p94
F0.13059228487807636
sS'qcd_scale'
p95
F0.16485323176221534
sS'qcd_others_scale'
p96
F1
sS'z_scale'
p97
F1.314656945447455
ssssI01
(dp98
S'DETA_TAU1_TAU2'
p99
(dp100
S'OS_NONISOL'
p101
(dp102
S'qcd_z_scale'
p103
F1
sS'qcd_data_scale'
p104
F1
sS'qcd_scale_error'
p105
F0.37079422435256243
sS'z_scale_error'
p106
F46.763212539094496
sS'qcd_scale'
p107
F2.3165382025560146
sS'qcd_others_scale'
p108
F1
sS'z_scale'
p109
F329.57248815275494
ssS'OS_DOUBLE_NONISOL'
p110
(dp111
S'qcd_z_scale'
p112
F1
sS'qcd_data_scale'
p113
F1
sS'qcd_scale_error'
p114
F3.3802350549767697
sS'z_scale_error'
p115
F37.087082745632692
sS'qcd_scale'
p116
F13.433894322084335
sS'qcd_others_scale'
p117
F1
sS'z_scale'
p118
F511.45198488379435
ssS'SS_DOUBLE_NONISOL'
p119
(dp120
S'qcd_z_scale'
p121
F1
sS'qcd_data_scale'
p122
F1
sS'qcd_scale_error'
p123
F9.2844931682418377
sS'z_scale_error'
p124
F95.745944144622598
sS'qcd_scale'
p125
F18.707636492829806
sS'qcd_others_scale'
p126
F1
sS'z_scale'
p127
F456.92505638968311
ssS'SS'
p128
(dp129
S'qcd_z_scale'
p130
F1
sS'qcd_data_scale'
p131
F1
sS'qcd_scale_error'
p132
F0.22718362967821901
sS'z_scale_error'
p133
F46.360305910846414
sS'qcd_scale'
p134
F1.4500924512976383
sS'qcd_others_scale'
p135
F1
sS'z_scale'
p136
F346.02022551823666
ssS'nOS_NONISOL'
p137
(dp138
S'qcd_z_scale'
p139
F1
sS'qcd_data_scale'
p140
F1
sS'qcd_scale_error'
p141
F0.058478111323690352
sS'z_scale_error'
p142
F37.770963721485693
sS'qcd_scale'
p143
F0.46146916196796134
sS'qcd_others_scale'
p144
F1
sS'z_scale'
p145
F364.52337417704808
ssS'SS_NONISOL'
p146
(dp147
S'qcd_z_scale'
p148
F1
sS'qcd_data_scale'
p149
F1
sS'qcd_scale_error'
p150
F0.53923365855661043
sS'z_scale_error'
p151
F48.624278722940637
sS'qcd_scale'
p152
F2.7445399023862853
sS'qcd_others_scale'
p153
F1
sS'z_scale'
p154
F385.52792925904964
ssS'NONISOL'
p155
(dp156
S'qcd_z_scale'
p157
F1
sS'qcd_data_scale'
p158
F1
sS'qcd_scale_error'
p159
F0.047494432544632793
sS'z_scale_error'
p160
F37.544126944405164
sS'qcd_scale'
p161
F0.38865603751990002
sS'qcd_others_scale'
p162
F1
sS'z_scale'
p163
F355.94332041371047
ssS'DOUBLE_NONISOL'
p164
(dp165
S'qcd_z_scale'
p166
F1
sS'qcd_data_scale'
p167
F1
sS'qcd_scale_error'
p168
F0.84052796905113969
sS'z_scale_error'
p169
F37.616796632734349
sS'qcd_scale'
p170
F4.4020946409075883
sS'qcd_others_scale'
p171
F1
sS'z_scale'
p172
F421.4034229095617
ssS'nOS_DOUBLE_NONISOL'
p173
(dp174
S'qcd_z_scale'
p175
F1
sS'qcd_data_scale'
p176
F1
sS'qcd_scale_error'
p177
F1.0654944421834578
sS'z_scale_error'
p178
F37.890360490164468
sS'qcd_scale'
p179
F5.2679847175156977
sS'qcd_others_scale'
p180
F1
sS'z_scale'
p181
F427.64884371957487
ssS'nOS'
p182
(dp183
S'qcd_z_scale'
p184
F1
sS'qcd_data_scale'
p185
F1
sS'qcd_scale_error'
p186
F0.019495390580167908
sS'z_scale_error'
p187
F36.143221889144108
sS'qcd_scale'
p188
F0.16876448675394631
sS'qcd_others_scale'
p189
F1
sS'z_scale'
p190
F358.06452568188701
ssssssF12
(dp191
S'PRESELECTION'
p192
(dp193
I00
(dp194
S'DETA_TAU1_TAU2'
p195
(dp196
S'OS_NONISOL'
p197
(dp198
S'qcd_z_scale'
p199
F1
sS'qcd_data_scale'
p200
F1
sS'qcd_scale_error'
p201
F0.045168987739484752
sS'z_scale_error'
p202
F0.037754157982923718
sS'qcd_scale'
p203
F0.89210599846846994
sS'qcd_others_scale'
p204
F1
sS'z_scale'
p205
F0.9665934266326911
ssS'OS_DOUBLE_NONISOL'
p206
(dp207
S'qcd_z_scale'
p208
F1
sS'qcd_data_scale'
p209
F1
sS'qcd_scale_error'
p210
F0.42659781670337099
sS'z_scale_error'
p211
F0.059850514008079066
sS'qcd_scale'
p212
F5.1539999918812205
sS'qcd_others_scale'
p213
F1
sS'z_scale'
p214
F0.91630315566817355
ssS'SS_DOUBLE_NONISOL'
p215
(dp216
S'qcd_z_scale'
p217
F1
sS'qcd_data_scale'
p218
F1
sS'qcd_scale_error'
p219
F0.50967120973454827
sS'z_scale_error'
p220
F0.063954053085019072
sS'qcd_scale'
p221
F6.1262411798565362
sS'qcd_others_scale'
p222
F1
sS'z_scale'
p223
F0.86921705998385645
ssS'SS'
p224
(dp225
S'qcd_z_scale'
p226
F1
sS'qcd_data_scale'
p227
F1
sS'qcd_scale_error'
p228
F0.075497692683293802
sS'z_scale_error'
p229
F0.037483896565412227
sS'qcd_scale'
p230
F1.4338202499539163
sS'qcd_others_scale'
p231
F1
sS'z_scale'
p232
F1.0004419602505112
ssS'nOS_NONISOL'
p233
(dp234
S'qcd_z_scale'
p235
F1
sS'qcd_data_scale'
p236
F1
sS'qcd_scale_error'
p237
F0.017462779686162579
sS'z_scale_error'
p238
F0.039278550638275213
sS'qcd_scale'
p239
F0.34437476750224466
sS'qcd_others_scale'
p240
F1
sS'z_scale'
p241
F0.9373412474820596
ssS'SS_NONISOL'
p242
(dp243
S'qcd_z_scale'
p244
F1
sS'qcd_data_scale'
p245
F1
sS'qcd_scale_error'
p246
F0.063992850547760924
sS'z_scale_error'
p247
F0.040873082651340875
sS'qcd_scale'
p248
F1.215291579284423
sS'qcd_others_scale'
p249
F1
sS'z_scale'
p250
F0.93182997393263456
ssS'NONISOL'
p251
(dp252
S'qcd_z_scale'
p253
F1
sS'qcd_data_scale'
p254
F1
sS'qcd_scale_error'
p255
F0.012020149730495252
sS'z_scale_error'
p256
F0.037566479688474499
sS'qcd_scale'
p257
F0.24769722317104675
sS'qcd_others_scale'
p258
F1
sS'z_scale'
p259
F0.94600724036791306
ssS'DOUBLE_NONISOL'
p260
(dp261
S'qcd_z_scale'
p262
F1
sS'qcd_data_scale'
p263
F1
sS'qcd_scale_error'
p264
F0.057402170804094418
sS'z_scale_error'
p265
F0.041922195825538522
sS'qcd_scale'
p266
F1.1150845928983648
sS'qcd_others_scale'
p267
F1
sS'z_scale'
p268
F0.88975682365765729
ssS'nOS_DOUBLE_NONISOL'
p269
(dp270
S'qcd_z_scale'
p271
F1
sS'qcd_data_scale'
p272
F1
sS'qcd_scale_error'
p273
F0.074596499903775704
sS'z_scale_error'
p274
F0.042815917877411958
sS'qcd_scale'
p275
F1.4353967653241653
sS'qcd_others_scale'
p276
F1
sS'z_scale'
p277
F0.87737731246123962
ssS'OS'
p278
(dp279
S'qcd_z_scale'
p280
F1
sS'qcd_data_scale'
p281
F1
sS'qcd_scale_error'
p282
F0.051122521550678118
sS'z_scale_error'
p283
F0.042180743082397339
sS'qcd_scale'
p284
F1.0000128224346507
sS'qcd_others_scale'
p285
F1
sS'z_scale'
p286
F0.87715311239825233
ssS'nOS'
p287
(dp288
S'qcd_z_scale'
p289
F1
sS'qcd_data_scale'
p290
F1
sS'qcd_scale_error'
p291
F0.033144532482679116
sS'z_scale_error'
p292
F0.038734959394840028
sS'qcd_scale'
p293
F0.64130076773940625
sS'qcd_others_scale'
p294
F1
sS'z_scale'
p295
F0.96417265863215862
ssssI01
(dp296
S'DETA_TAU1_TAU2'
p297
(dp298
S'OS_NONISOL'
p299
(dp300
S'qcd_z_scale'
p301
F1
sS'qcd_data_scale'
p302
F1
sS'qcd_scale_error'
p303
F0.046261905726791119
sS'z_scale_error'
p304
F12.204189777697241
sS'qcd_scale'
p305
F0.92353919406351859
sS'qcd_others_scale'
p306
F1
sS'z_scale'
p307
F305.99585770773763
ssS'OS_DOUBLE_NONISOL'
p308
(dp309
S'qcd_z_scale'
p310
F1
sS'qcd_data_scale'
p311
F1
sS'qcd_scale_error'
p312
F0.38051215992439219
sS'z_scale_error'
p313
F16.910201633698346
sS'qcd_scale'
p314
F5.1244910310401286
sS'qcd_others_scale'
p315
F1
sS'z_scale'
p316
F300.58983054796187
ssS'SS_DOUBLE_NONISOL'
p317
(dp318
S'qcd_z_scale'
p319
F1
sS'qcd_data_scale'
p320
F1
sS'qcd_scale_error'
p321
F0.5017728225554412
sS'z_scale_error'
p322
F20.109459576607509
sS'qcd_scale'
p323
F6.3837216200647582
sS'qcd_others_scale'
p324
F1
sS'z_scale'
p325
F270.23108002556819
ssS'SS'
p326
(dp327
S'qcd_z_scale'
p328
F1
sS'qcd_data_scale'
p329
F1
sS'qcd_scale_error'
p330
F0.075668014858135971
sS'z_scale_error'
p331
F12.114197911898264
sS'qcd_scale'
p332
F1.4503165520119514
sS'qcd_others_scale'
p333
F1
sS'z_scale'
p334
F317.59079367041613
ssS'nOS_NONISOL'
p335
(dp336
S'qcd_z_scale'
p337
F1
sS'qcd_data_scale'
p338
F1
sS'qcd_scale_error'
p339
F0.018565679283332893
sS'z_scale_error'
p340
F13.886409448619759
sS'qcd_scale'
p341
F0.3607380223986667
sS'qcd_others_scale'
p342
F1
sS'z_scale'
p343
F290.64940557669189
ssS'SS_NONISOL'
p344
(dp345
S'qcd_z_scale'
p346
F1
sS'qcd_data_scale'
p347
F1
sS'qcd_scale_error'
p348
F0.06406341059898342
sS'z_scale_error'
p349
F13.108143928489117
sS'qcd_scale'
p350
F1.2351929921927378
sS'qcd_others_scale'
p351
F1
sS'z_scale'
p352
F295.06102139253983
ssS'NONISOL'
p353
(dp354
S'qcd_z_scale'
p355
F1
sS'qcd_data_scale'
p356
F1
sS'qcd_scale_error'
p357
F0.01212664457844494
sS'z_scale_error'
p358
F12.092421189570878
sS'qcd_scale'
p359
F0.25250630579710193
sS'qcd_others_scale'
p360
F1
sS'z_scale'
p361
F300.64790209711339
ssS'DOUBLE_NONISOL'
p362
(dp363
S'qcd_z_scale'
p364
F1
sS'qcd_data_scale'
p365
F1
sS'qcd_scale_error'
p366
F0.057005448437692417
sS'z_scale_error'
p367
F13.307325661872598
sS'qcd_scale'
p368
F1.1261494898178228
sS'qcd_others_scale'
p369
F1
sS'z_scale'
p370
F284.58238018763205
ssS'nOS_DOUBLE_NONISOL'
p371
(dp372
S'qcd_z_scale'
p373
F1
sS'qcd_data_scale'
p374
F1
sS'qcd_scale_error'
p375
F0.074619812881244169
sS'z_scale_error'
p376
F13.715439623239941
sS'qcd_scale'
p377
F1.454533301259856
sS'qcd_others_scale'
p378
F1
sS'z_scale'
p379
F278.93814888415523
ssS'OS'
p380
(dp381
S'qcd_z_scale'
p382
F1
sS'qcd_data_scale'
p383
F1
sS'qcd_scale_error'
p384
F0.0499659372252537
sS'z_scale_error'
p385
F13.25154593350697
sS'qcd_scale'
p386
F0.99998889450441042
sS'qcd_others_scale'
p387
F1
sS'z_scale'
p388
F281.89070135225347
ssS'nOS'
p389
(dp390
S'qcd_z_scale'
p391
F1
sS'qcd_data_scale'
p392
F1
sS'qcd_scale_error'
p393
F0.034325602361327548
sS'z_scale_error'
p394
F13.526999763937232
sS'qcd_scale'
p395
F0.65189172695432829
sS'qcd_others_scale'
p396
F1
sS'z_scale'
p397
F304.69861720366731
ssssss.