(dp1
F12
(dp2
S'0J'
p3
(dp4
I00
(dp5
S'TRACK'
p6
(F1.2184211306824739
F0.052583887574717769
F1.2154153860954391
F0.068336228592666304
tp7
sssS'1J'
p8
(dp9
I00
(dp10
S'TRACK'
p11
(F1.1758603342813723
F0.073270215151511442
F1.0880623397828719
F0.075533929407071931
tp12
sssS'2J'
p13
(dp14
I00
(dp15
S'TRACK'
p16
(F1.021529863168235
F0.044121851840210669
F1.1500189038580511
F0.093863969613303455
tp17
ssss.