(dp1
F11
(dp2
S'PRESELECTION'
p3
(dp4
I00
(dp5
S'DETA_TAU1_TAU2'
p6
(dp7
S'OS_NONISOL'
p8
(dp9
S'qcd_z_scale'
p10
F1
sS'qcd_data_scale'
p11
F1
sS'qcd_scale_error'
p12
F0.3572614875331373
sS'z_scale_error'
p13
F0.11863767513322153
sS'qcd_scale'
p14
F1.8389070148503672
sS'qcd_others_scale'
p15
F1
sS'z_scale'
p16
F1.3139362513611397
ssS'SS'
p17
(dp18
S'qcd_z_scale'
p19
F1
sS'qcd_data_scale'
p20
F1
sS'qcd_scale_error'
p21
F0.22784890380276746
sS'z_scale_error'
p22
F0.17301156438382689
sS'qcd_scale'
p23
F1.1430961362778436
sS'qcd_others_scale'
p24
F1
sS'z_scale'
p25
F1.0477913307040354
ssS'nOS_NONISOL'
p26
(dp27
S'qcd_z_scale'
p28
F1
sS'qcd_data_scale'
p29
F1
sS'qcd_scale_error'
p30
F0.10388517129666353
sS'z_scale_error'
p31
F0.14110919829251423
sS'qcd_scale'
p32
F0.6580080827606013
sS'qcd_others_scale'
p33
F1
sS'z_scale'
p34
F1.0709014854357994
ssS'SS_NONISOL'
p35
(dp36
S'qcd_z_scale'
p37
F1
sS'qcd_data_scale'
p38
F1
sS'qcd_scale_error'
p39
F1.1336587087308438
sS'z_scale_error'
p40
F0.24625086555236547
sS'qcd_scale'
p41
F3.9092899885949342
sS'qcd_others_scale'
p42
F1
sS'z_scale'
p43
F1.1040003850760081
ssS'nOS_ISOL'
p44
(dp45
S'qcd_z_scale'
p46
F1
sS'qcd_data_scale'
p47
F1
sS'qcd_scale_error'
p48
F0.030314913499378027
sS'z_scale_error'
p49
F0.13473171469928244
sS'qcd_scale'
p50
F0.21009264849515144
sS'qcd_others_scale'
p51
F1
sS'z_scale'
p52
F1.0566865538154744
ssS'SS_ISOL'
p53
(dp54
S'qcd_z_scale'
p55
F1
sS'qcd_data_scale'
p56
F1
sS'qcd_scale_error'
p57
F0.348725446524076
sS'z_scale_error'
p58
F0.18850981767966812
sS'qcd_scale'
p59
F1.6269021273639011
sS'qcd_others_scale'
p60
F1
sS'z_scale'
p61
F1.0198871535826668
ssS'NONISOL'
p62
(dp63
S'qcd_z_scale'
p64
F1
sS'qcd_data_scale'
p65
F1
sS'qcd_scale_error'
p66
F0.078355565661742357
sS'z_scale_error'
p67
F0.13566111731699221
sS'qcd_scale'
p68
F0.51105279862804398
sS'qcd_others_scale'
p69
F1
sS'z_scale'
p70
F1.0850170809858772
ssS'nOS'
p71
(dp72
S'qcd_z_scale'
p73
F1
sS'qcd_data_scale'
p74
F1
sS'qcd_scale_error'
p75
F0.022831527023442516
sS'z_scale_error'
p76
F0.13339445420415311
sS'qcd_scale'
p77
F0.15979860323673761
sS'qcd_others_scale'
p78
F1
sS'z_scale'
p79
F1.0569140458373114
ssssI01
(dp80
S'DETA_TAU1_TAU2'
p81
(dp82
S'OS_NONISOL'
p83
(dp84
S'qcd_z_scale'
p85
F1
sS'qcd_data_scale'
p86
F1
sS'qcd_scale_error'
p87
F0.45967946854313757
sS'z_scale_error'
p88
F33.548996683608998
sS'qcd_scale'
p89
F2.2576450044000653
sS'qcd_others_scale'
p90
F1
sS'z_scale'
p91
F333.17638852918242
ssS'SS'
p92
(dp93
S'qcd_z_scale'
p94
F1
sS'qcd_data_scale'
p95
F1
sS'qcd_scale_error'
p96
F0.23301734632489443
sS'z_scale_error'
p97
F46.60777433452553
sS'qcd_scale'
p98
F1.1791828917088187
sS'qcd_others_scale'
p99
F1
sS'z_scale'
p100
F269.80063764510527
ssS'nOS_NONISOL'
p101
(dp102
S'qcd_z_scale'
p103
F1
sS'qcd_data_scale'
p104
F1
sS'qcd_scale_error'
p105
F0.10386355292746748
sS'z_scale_error'
p106
F37.030656352763586
sS'qcd_scale'
p107
F0.66437596430039914
sS'qcd_others_scale'
p108
F1
sS'z_scale'
p109
F281.94004094424002
ssS'SS_NONISOL'
p110
(dp111
S'qcd_z_scale'
p112
F1
sS'qcd_data_scale'
p113
F1
sS'qcd_scale_error'
p114
F1.1267954018381199
sS'z_scale_error'
p115
F64.362132888720936
sS'qcd_scale'
p116
F3.9236063994438832
sS'qcd_others_scale'
p117
F1
sS'z_scale'
p118
F291.26128240407076
ssS'nOS_ISOL'
p119
(dp120
S'qcd_z_scale'
p121
F1
sS'qcd_data_scale'
p122
F1
sS'qcd_scale_error'
p123
F0.030888733586567414
sS'z_scale_error'
p124
F36.112440898413155
sS'qcd_scale'
p125
F0.21277155666830294
sS'qcd_others_scale'
p126
F1
sS'z_scale'
p127
F276.61103248239147
ssS'SS_ISOL'
p128
(dp129
S'qcd_z_scale'
p130
F1
sS'qcd_data_scale'
p131
F1
sS'qcd_scale_error'
p132
F0.37066230113357851
sS'z_scale_error'
p133
F53.206055795234199
sS'qcd_scale'
p134
F1.7145067621195764
sS'qcd_others_scale'
p135
F1
sS'z_scale'
p136
F256.82019115330593
ssS'NONISOL'
p137
(dp138
S'qcd_z_scale'
p139
F1
sS'qcd_data_scale'
p140
F1
sS'qcd_scale_error'
p141
F0.079553341430264116
sS'z_scale_error'
p142
F35.606842929253453
sS'qcd_scale'
p143
F0.52393136683036579
sS'qcd_others_scale'
p144
F1
sS'z_scale'
p145
F285.52368575357394
ssS'nOS'
p146
(dp147
S'qcd_z_scale'
p148
F1
sS'qcd_data_scale'
p149
F1
sS'qcd_scale_error'
p150
F0.023177678063958845
sS'z_scale_error'
p151
F35.60505888429136
sS'qcd_scale'
p152
F0.16158135006721008
sS'qcd_others_scale'
p153
F1
sS'z_scale'
p154
F277.21896955601642
ssssssF12
(dp155
S'PRESELECTION'
p156
(dp157
I00
(dp158
S'DETA_TAU1_TAU2'
p159
(dp160
S'OS_NONISOL'
p161
(dp162
S'qcd_z_scale'
p163
F1
sS'qcd_data_scale'
p164
F1
sS'qcd_scale_error'
p165
F0.04645092122012049
sS'z_scale_error'
p166
F0.041027682584457825
sS'qcd_scale'
p167
F0.91378915028161189
sS'qcd_others_scale'
p168
F1
sS'z_scale'
p169
F0.96376987157569383
ssS'SS'
p170
(dp171
S'qcd_z_scale'
p172
F1
sS'qcd_data_scale'
p173
F1
sS'qcd_scale_error'
p174
F0.035028860149000522
sS'z_scale_error'
p175
F0.041911576147558319
sS'qcd_scale'
p176
F0.67146968322012135
sS'qcd_others_scale'
p177
F1
sS'z_scale'
p178
F0.96997070453624468
ssS'nOS_NONISOL'
p179
(dp180
S'qcd_z_scale'
p181
F1
sS'qcd_data_scale'
p182
F1
sS'qcd_scale_error'
p183
F0.018628008421283159
sS'z_scale_error'
p184
F0.044072578359215971
sS'qcd_scale'
p185
F0.35572513390210136
sS'qcd_others_scale'
p186
F1
sS'z_scale'
p187
F0.92817807415724618
ssS'SS_NONISOL'
p188
(dp189
S'qcd_z_scale'
p190
F1
sS'qcd_data_scale'
p191
F1
sS'qcd_scale_error'
p192
F0.065159291153708637
sS'z_scale_error'
p193
F0.043780330130249068
sS'qcd_scale'
p194
F1.2513756863426755
sS'qcd_others_scale'
p195
F1
sS'z_scale'
p196
F0.92915642884701211
ssS'nOS_ISOL'
p197
(dp198
S'qcd_z_scale'
p199
F1
sS'qcd_data_scale'
p200
F1
sS'qcd_scale_error'
p201
F0.034471222643137497
sS'z_scale_error'
p202
F0.042834766028710565
sS'qcd_scale'
p203
F0.64407384076780572
sS'qcd_others_scale'
p204
F1
sS'z_scale'
p205
F0.9730299346787975
ssS'SS_ISOL'
p206
(dp207
S'qcd_z_scale'
p208
F1
sS'qcd_data_scale'
p209
F1
sS'qcd_scale_error'
p210
F0.093113731890963655
sS'z_scale_error'
p211
F0.046532920578415196
sS'qcd_scale'
p212
F1.4529068088503578
sS'qcd_others_scale'
p213
F1
sS'z_scale'
p214
F1.016735674060913
ssS'NONISOL'
p215
(dp216
S'qcd_z_scale'
p217
F1
sS'qcd_data_scale'
p218
F1
sS'qcd_scale_error'
p219
F0.013319287106525511
sS'z_scale_error'
p220
F0.043399914399280141
sS'qcd_scale'
p221
F0.25683930658360304
sS'qcd_others_scale'
p222
F1
sS'z_scale'
p223
F0.93338553395932056
ssS'nOS'
p224
(dp225
S'qcd_z_scale'
p226
F1
sS'qcd_data_scale'
p227
F1
sS'qcd_scale_error'
p228
F0.012117071049799198
sS'z_scale_error'
p229
F0.043735128770254129
sS'qcd_scale'
p230
F0.22971026685863116
sS'qcd_others_scale'
p231
F1
sS'z_scale'
p232
F0.94170087123161939
ssssI01
(dp233
S'DETA_TAU1_TAU2'
p234
(dp235
S'OS_NONISOL'
p236
(dp237
S'qcd_z_scale'
p238
F1
sS'qcd_data_scale'
p239
F1
sS'qcd_scale_error'
p240
F0.046595793054642856
sS'z_scale_error'
p241
F12.930779413743783
sS'qcd_scale'
p242
F0.93761345122717121
sS'qcd_others_scale'
p243
F1
sS'z_scale'
p244
F302.98194469086371
ssS'SS'
p245
(dp246
S'qcd_z_scale'
p247
F1
sS'qcd_data_scale'
p248
F1
sS'qcd_scale_error'
p249
F0.034843948218964985
sS'z_scale_error'
p250
F13.263037048383381
sS'qcd_scale'
p251
F0.68338374297670901
sS'qcd_others_scale'
p252
F1
sS'z_scale'
p253
F303.58209953284063
ssS'nOS_NONISOL'
p254
(dp255
S'qcd_z_scale'
p256
F1
sS'qcd_data_scale'
p257
F1
sS'qcd_scale_error'
p258
F0.018485150322386339
sS'z_scale_error'
p259
F13.877063483343568
sS'qcd_scale'
p260
F0.36157721324448105
sS'qcd_others_scale'
p261
F1
sS'z_scale'
p262
F291.19963717359263
ssS'SS_NONISOL'
p263
(dp264
S'qcd_z_scale'
p265
F1
sS'qcd_data_scale'
p266
F1
sS'qcd_scale_error'
p267
F0.064743365006072556
sS'z_scale_error'
p268
F13.826845869806506
sS'qcd_scale'
p269
F1.275452446409723
sS'qcd_others_scale'
p270
F1
sS'z_scale'
p271
F290.17940256146085
ssS'nOS_ISOL'
p272
(dp273
S'qcd_z_scale'
p274
F1
sS'qcd_data_scale'
p275
F1
sS'qcd_scale_error'
p276
F0.034147750175774982
sS'z_scale_error'
p277
F13.532216060039845
sS'qcd_scale'
p278
F0.65286569574674413
sS'qcd_others_scale'
p279
F1
sS'z_scale'
p280
F305.02664589977127
ssS'SS_ISOL'
p281
(dp282
S'qcd_z_scale'
p283
F1
sS'qcd_data_scale'
p284
F1
sS'qcd_scale_error'
p285
F0.092462115499572881
sS'z_scale_error'
p286
F14.76899109710304
sS'qcd_scale'
p287
F1.4868981447282998
sS'qcd_others_scale'
p288
F1
sS'z_scale'
p289
F317.28576770095736
ssS'NONISOL'
p290
(dp291
S'qcd_z_scale'
p292
F1
sS'qcd_data_scale'
p293
F1
sS'qcd_scale_error'
p294
F0.013249433864400443
sS'z_scale_error'
p295
F13.660150292898779
sS'qcd_scale'
p296
F0.26144488209207234
sS'qcd_others_scale'
p297
F1
sS'z_scale'
p298
F293.27456339196152
ssS'nOS'
p299
(dp300
S'qcd_z_scale'
p301
F1
sS'qcd_data_scale'
p302
F1
sS'qcd_scale_error'
p303
F0.012014930091502897
sS'z_scale_error'
p304
F13.783824260151855
sS'qcd_scale'
p305
F0.23320630239260942
sS'qcd_others_scale'
p306
F1
sS'z_scale'
p307
F295.41856877975482
ssssss.