(dp1
F12
(dp2
S'BOOSTED'
p3
(dp4
I00
(dp5
S'TRACK'
p6
(F1.593350917773279
F0.34837562113980558
F0.88669910234502169
F0.058110392749565122
tp7
ssI01
(dp8
S'TRACK'
p9
(F0.78734236563909066
F0.29170690992631548
F247.71612603061627
F13.527596795367584
tp10
sssS'1J_NONBOOSTED'
p11
(dp12
I00
(dp13
S'TRACK'
p14
(F1.2279549226417088
F0.046330185933975754
F1.0646400551285307
F0.014872388500476558
tp15
ssI01
(dp16
S'TRACK'
p17
(F1.0814512297513468
F0.04626125659535818
F226.6635675001385
F10.423415976460303
tp18
sssS'VBF'
p19
(dp20
I00
(dp21
S'TRACK'
p22
(F1.2936369957825695
F0.17307253277297452
F1.2036527282100837
F0.18972037119035534
tp23
ssI01
(dp24
S'TRACK'
p25
(F1.1840083777298895
F0.14879631220390455
F227.75022234639604
F22.510156464811196
tp26
sssS'0J_NONBOOSTED'
p27
(dp28
I00
(dp29
S'TRACK'
p30
(F1.3136911613635396
F0.042066862632185176
F1.003013611740732
F0.048296159211717017
tp31
ssI01
(dp32
S'TRACK'
p33
(F1.2105393034628584
F0.040157455441855228
F200.28578501803764
F9.3030268407066412
tp34
ssss.