(dp1
F12
(dp2
S'BOOSTED'
p3
(dp4
I01
(dp5
S'TRACK'
p6
(dp7
S'SS_TRK'
p8
(F0.87403128970394073
F0.38046356620023492
F312.66616687267054
F19.97646329341319
tp9
sS'nOS'
p10
(F0.16823940984379154
F0.073234181199935633
F312.66616687267054
F19.97646329341319
tp11
ssssS'1J_NONBOOSTED'
p12
(dp13
I01
(dp14
S'TRACK'
p15
(dp16
g8
(F1.107729282015349
F0.047650654673723092
F404.50374339802829
F19.324470520024295
tp17
sg10
(F0.17974332678197616
F0.0077319317395054942
F404.50374339802829
F19.324470520024295
tp18
ssssS'VBF'
p19
(dp20
I01
(dp21
S'TRACK'
p22
(dp23
g8
(F1.1412338479175579
F0.15744738379089673
F346.66807922196136
F34.679977696295367
tp24
sS'nOS'
p25
(F0.18314952313448241
F0.025267751489051259
F346.66807922196136
F34.679977696295367
tp26
ssssS'0J_NONBOOSTED'
p27
(dp28
I01
(dp29
S'TRACK'
p30
(dp31
g8
(F1.2003786206553122
F0.041829400315774756
F405.03052292122459
F20.848879411824047
tp32
sg10
(F0.21515218282718621
F0.0074973734365395561
F405.03052292122459
F20.848879411824047
tp33
sssss.