(dp1
F12
(dp2
S'VBF'
p3
(dp4
I00
(dp5
S'TRACK'
p6
(F1.2360043015217745
F0.21040754404275452
F1.3518900856166298
F0.40767249244736825
tp7
sssS'BOOSTED'
p8
(dp9
I00
(dp10
S'TRACK'
p11
(F1.2601978229741637
F0.23074605196482578
F0.94914702165536058
F0.072288613199543383
tp12
sssS'0J_NONBOOSTED'
p13
(dp14
I00
(dp15
S'TRACK'
p16
(F1.2498964076291554
F0.039591487700789685
F1.0479899876801229
F0.048816298546596526
tp17
sssS'0J'
p18
(dp19
I00
(dp20
S'TRACK'
p21
(F1.2303755013736772
F0.038814791121796421
F1.1526034041873738
F0.051591916559729833
tp22
sssS'1J'
p23
(dp24
I00
(dp25
S'TRACK'
p26
(F1.2511077347603727
F0.08146213179407602
F1.0336133310924225
F0.077128574722212517
tp27
sssS'1J_NONBOOSTED'
p28
(dp29
I00
(dp30
S'TRACK'
p31
(F1.1859002853142289
F0.042820834069991376
F1.1843375024593144
F0.066587860643073538
tp32
sssS'2J'
p33
(dp34
I00
(dp35
S'TRACK'
p36
(F1.1511424598799247
F0.10997252035731853
F1.0405809221644851
F0.10491336088754022
tp37
ssss.