(dp1
F12
(dp2
S'CUT_PRESELECTION'
p3
(dp4
I00
(dp5
S'TRACK'
p6
(dp7
S'SS_TRK'
p8
(dp9
S'qcd_z_scale'
p10
F1
sS'qcd_data_scale'
p11
F1.4229765817982842
sS'z_scale_error'
p12
F0
sS'qcd_others_scale'
p13
F1
sS'z_scale'
p14
F0.970032695697988
sS'qcd_data_scale_error'
p15
F0
ssS'nOS'
p16
(dp17
g10
F0.06423541183384214
sg11
F0.24294857312482879
sg12
F0
sg13
F0.15540855787207453
sg14
F0.970032695697988
sg15
F0
ssssI01
(dp18
S'TRACK'
p19
(dp20
S'SS_TRK'
p21
(dp22
S'qcd_z_scale'
p23
F1
sS'qcd_data_scale'
p24
F1.2761225345185956
sS'z_scale_error'
p25
F0
sS'qcd_others_scale'
p26
F1
sS'z_scale'
p27
F363.91003125976937
sS'qcd_data_scale_error'
p28
F0
ssS'nOS'
p29
(dp30
g23
F0.053564692457981164
sg24
F0.21787579139350999
sg25
F0
sg26
F0.15540855787207453
sg27
F363.91003125976937
sg28
F0
sssssS'BOOSTED'
p31
(dp32
I00
(dp33
S'TRACK'
p34
(dp35
S'SS_TRK'
p36
(dp37
S'qcd_z_scale'
p38
F1
sS'qcd_data_scale'
p39
F2.0376615166624417
sS'z_scale_error'
p40
F0
sS'qcd_others_scale'
p41
F1
sS'z_scale'
p42
F0.80576830738851968
sS'qcd_data_scale_error'
p43
F0
ssS'nOS'
p44
(dp45
g38
F0.082247790299799159
sg39
F0.34589933153220459
sg40
F0
sg41
F0.18414405823491881
sg42
F0.80576830738851968
sg43
F0
sssssS'1J_NONBOOSTED'
p46
(dp47
I00
(dp48
S'TRACK'
p49
(dp50
g36
(dp51
g38
F1
sg39
F1.3483642225036321
sg40
F0
sg41
F1
sg42
F1.0791213566865374
sg43
F0
ssg44
(dp52
g38
F0.082035921559846889
sg39
F0.22808552000509735
sg40
F0
sg41
F0.17477458902279891
sg42
F1.0791213566865374
sg43
F0
sssssS'VBF'
p53
(dp54
I00
(dp55
S'TRACK'
p56
(dp57
g36
(dp58
g38
F1
sg39
F1.6014871899609096
sg40
F0
sg41
F1
sg42
F1.017757992408302
sg43
F0
ssg44
(dp59
g38
F0.082423669106790845
sg39
F0.2636093381240398
sg40
F0
sg41
F0.20913414000603772
sg42
F1.017757992408302
sg43
F0
sssssS'0J_NONBOOSTED'
p60
(dp61
I00
(dp62
S'TRACK'
p63
(dp64
S'SS_TRK'
p65
(dp66
g38
F1
sg39
F1.3833565173495868
sg40
F0
sg41
F1
sg42
F0.88557251460514308
sg43
F0
ssS'nOS'
p67
(dp68
g38
F0.078390256139410294
sg39
F0.25966034417331602
sg40
F0
sg41
F0.089577571293453409
sg42
F0.88557251460514308
sg43
F0
ssssss.