(dp1
F12
(dp2
S'CUT_PRESELECTION_DETA_CONTROL'
p3
(dp4
I01
(dp5
S'MASS'
p6
(dp7
S'nOS'
p8
(F0.1082327968064517
F0.052354872551929478
F1130.4059187740379
F376.22120169517871
tp9
ssssS'VBF'
p10
(dp11
I01
(dp12
S'TRACK'
p13
(dp14
S'SS_TRK'
p15
(F1.1036974058671571
F0.19424600397943559
F380.88510266381263
F37.576408978682572
tp16
sS'nOS'
p17
(F0.18711788189912304
F0.032931943700133498
F380.88510266381263
F37.576408978682572
tp18
ssssS'0J_NONBOOSTED_DETA_CONTROL'
p19
(dp20
I01
(dp21
S'TRACK'
p22
(dp23
S'SS_TRK'
p24
(F0.68214561015449982
F0.1262550588715175
F3902.3934442702057
F845.29442591942984
tp25
sS'nOS'
p26
(F0.13049831463738101
F0.024153307082698479
F3902.3934442702057
F845.29442591942984
tp27
ssssS'CUT_PRESELECTION'
p28
(dp29
I00
(dp30
S'TRACK'
p31
(dp32
S'SS_TRK'
p33
(F1.3506913529263169
F0.023871389928131759
F1.1115737440830358
F0.033712664988883125
tp34
sS'nOS'
p35
(F0.23556924093441567
F0.0041633236144114271
F1.1115737440830358
F0.033712664988883125
tp36
sssI01
(dp37
S'TRACK'
p38
(dp39
S'SS_TRK'
p40
(F1.3154959525699139
F0
F335.52286887055772
F0
tp41
sS'nOS'
p42
(F0.22922390871938408
F0
F335.52286887055772
F0
tp43
ssS'MASS'
p44
(dp45
S'SS_TRK'
p46
(F1.9080011734624851
F0.081233682906077229
F137.41307780349564
F22.577172012860174
tp47
sS'nOS'
p48
(F0.27734783995147533
F0.010375568054712271
F237.06221623578162
F16.75275262101966
tp49
ssssS'BOOSTED'
p50
(dp51
I01
(dp52
S'TRACK'
p53
(dp54
g15
(F0.83471477587133414
F0.42418297985764847
F324.43091160633173
F19.358660082463054
tp55
sS'nOS'
p56
(F0.1583797314452926
F0.080484961301169056
F324.43091160633173
F19.358660082463054
tp57
ssssS'BOOSTED_DETA_CONTROL'
p58
(dp59
I01
(dp60
S'TRACK'
p61
(dp62
g24
(F0.090143211050547345
F0.83221545490782811
F967.4131533538623
F255.41158691356134
tp63
sg26
(F0.019765331527730915
F0.18247646358560402
F967.4131533538623
F255.41158691356134
tp64
ssssS'1J_NONBOOSTED_DETA_CONTROL'
p65
(dp66
I01
(dp67
S'TRACK'
p68
(dp69
g24
(F1.1350324907284326
F0.1514851275863372
F982.50417618519236
F306.88722886459186
tp70
sg26
(F0.21169090091715906
F0.028252956101478762
F982.50417618519236
F306.88722886459186
tp71
ssssS'VBF_DETA_CONTROL'
p72
(dp73
I01
(dp74
S'TRACK'
p75
(dp76
g24
(F1.0000000000000009
F11.032744659164646
F1158.3643744784708
F12779.938365893931
tp77
sg26
(F0.19540335901421493
F2.1558353655469098
F1158.3643744784708
F12779.938365893931
tp78
ssssS'0J_NONBOOSTED'
p79
(dp80
I01
(dp81
S'TRACK'
p82
(dp83
g15
(F1.1423075422159452
F0.043099840858237815
F495.88244411412853
F26.803085116348882
tp84
sg56
(F0.21959320838799498
F0.0082853627287731348
F495.88244411412853
F26.803085116348882
tp85
ssssS'PRESELECTION'
p86
(dp87
I01
(dp88
S'TRACK'
p89
(dp90
S'SS_TRK'
p91
(F1.1788842246350173
F0.041050956789979831
F422.63917256607385
F17.244679017497635
tp92
sS'nOS'
p93
(F0.21950995785631905
F0.0076437478817904135
F422.63917256607385
F17.244679017497635
tp94
ssssS'1J_NONBOOSTED'
p95
(dp96
I01
(dp97
S'TRACK'
p98
(dp99
g15
(F1.0461451048300292
F0.054571943177504634
F453.8893278019911
F24.183032323425344
tp100
sg56
(F0.18093731726970336
F0.0094385577594770266
F453.8893278019911
F24.183032323425344
tp101
sssss.