(dp1
F12
(dp2
S'VBF'
p3
(dp4
I00
(dp5
S'TRACK'
p6
(F1.2936369957825695
F0.17307253277297452
F1.2036527282100837
F0.18972037119035534
tp7
ssI01
(dp8
S'TRACK'
p9
(F1.1903634179224087
F0.14751447929562544
F216.56395991280527
F21.244791013891241
tp10
sssS'0J_NONBOOSTED_DETA_CONTROL'
p11
(dp12
I00
(dp13
S'TRACK'
p14
(F1.2958046578993794
F0.050475371276992753
F3.0559503968112511
F0.020792863415235761
tp15
sssS'1J_NONBOOSTED_DETA_CONTROL'
p16
(dp17
I00
(dp18
S'TRACK'
p19
(F1.3259380301534875
F0.077869053708765734
F2.61423836875211
F0.33603110635246525
tp20
sssS'BOOSTED'
p21
(dp22
I00
(dp23
S'TRACK'
p24
(F1.593350917773279
F0.34837562113980558
F0.88669910234502169
F0.058110392749565122
tp25
ssI01
(dp26
S'TRACK'
p27
(F0.74098865964583316
F0.27087594503447276
F239.79127492209011
F12.579819277600325
tp28
sssS'BOOSTED_DETA_CONTROL'
p29
(dp30
I00
(dp31
S'TRACK'
p32
(F1
F0.59500983952938602
F2.8622949749430937
F1.7030936737266582
tp33
sssS'VBF_DETA_CONTROL'
p34
(dp35
I00
(dp36
S'TRACK'
p37
(F1
F0.59500983952938602
F2.2485490455915587
F1.3379088067913874
tp38
sssS'0J_NONBOOSTED'
p39
(dp40
I00
(dp41
S'TRACK'
p42
(F1.3136911613635396
F0.042066862632185176
F1.003013611740732
F0.048296159211717017
tp43
ssI01
(dp44
S'TRACK'
p45
(F1.1621449658104948
F0.038086373631336823
F207.81307926948966
F9.3236510258869458
tp46
sssS'1J_NONBOOSTED'
p47
(dp48
I00
(dp49
S'TRACK'
p50
(F1.2279549226417088
F0.046330185933975754
F1.0646400551285307
F0.014872388500476558
tp51
ssI01
(dp52
S'TRACK'
p53
(F1.0704931886981228
F0.043186505151952104
F220.0225346466103
F9.413797354461984
tp54
ssss.