(dp1
F11
(dp2
S'PRESELECTION'
p3
(dp4
I01
(dp5
S'DETA_TAU1_TAU2'
p6
(dp7
S'SS'
p8
(dp9
S'qcd_z_scale'
p10
F1
sS'qcd_data_scale'
p11
F1
sS'qcd_scale_error'
p12
F0.16366661584843012
sS'z_scale_error'
p13
F39.867392579641674
sS'qcd_scale'
p14
F1.4822103620954969
sS'qcd_others_scale'
p15
F1
sS'z_scale'
p16
F318.6049746848168
ssS'NONISOL'
p17
(dp18
S'qcd_z_scale'
p19
F1
sS'qcd_data_scale'
p20
F1
sS'qcd_scale_error'
p21
F0.035265949565085233
sS'z_scale_error'
p22
F34.215653966101698
sS'qcd_scale'
p23
F0.4167726298206883
sS'qcd_others_scale'
p24
F1
sS'z_scale'
p25
F295.70823817705934
ssS'nOS'
p26
(dp27
S'qcd_z_scale'
p28
F1
sS'qcd_data_scale'
p29
F1
sS'qcd_scale_error'
p30
F0.01452826285223916
sS'z_scale_error'
p31
F31.49688396622485
sS'qcd_scale'
p32
F0.16745295154257306
sS'qcd_others_scale'
p33
F1
sS'z_scale'
p34
F342.33039057137893
ssssssF12
(dp35
S'PRESELECTION'
p36
(dp37
I00
(dp38
S'DETA_TAU1_TAU2'
p39
(dp40
S'nOS'
p41
(dp42
S'qcd_z_scale'
p43
F1
sS'qcd_data_scale'
p44
F1
sS'qcd_scale_error'
p45
F0.059067074733853565
sS'z_scale_error'
p46
F0.071273608025150897
sS'qcd_scale'
p47
F0.70873324482957945
sS'qcd_others_scale'
p48
F1
sS'z_scale'
p49
F0.85936338916783517
ssssI01
(dp50
S'DETA_TAU1_TAU2'
p51
(dp52
S'SS'
p53
(dp54
S'qcd_z_scale'
p55
F1
sS'qcd_data_scale'
p56
F1
sS'qcd_scale_error'
p57
F0.061121921864215979
sS'z_scale_error'
p58
F11.428014007424881
sS'qcd_scale'
p59
F1.4401113725177348
sS'qcd_others_scale'
p60
F1
sS'z_scale'
p61
F316.97650744193135
ssS'NONISOL'
p62
(dp63
S'qcd_z_scale'
p64
F1
sS'qcd_data_scale'
p65
F1
sS'qcd_scale_error'
p66
F0.0095189782475523718
sS'z_scale_error'
p67
F11.092716698335806
sS'qcd_scale'
p68
F0.24993849699900489
sS'qcd_others_scale'
p69
F1
sS'z_scale'
p70
F299.60752933925164
ssS'nOS'
p71
(dp72
S'qcd_z_scale'
p73
F1
sS'qcd_data_scale'
p74
F1
sS'qcd_scale_error'
p75
F0.026391837165636839
sS'z_scale_error'
p76
F11.673668403733492
sS'qcd_scale'
p77
F0.64447640755020474
sS'qcd_others_scale'
p78
F1
sS'z_scale'
p79
F301.64842998069872
ssssss.