(dp1
F12
(dp2
S'VBF'
p3
(dp4
I00
(dp5
S'TRACK'
p6
(dp7
S'SS_TRK'
p8
(dp9
S'qcd_z_scale'
p10
F1
sS'qcd_data_scale'
p11
F1
sS'qcd_scale_error'
p12
F0.11579607641595484
sS'z_scale_error'
p13
F0.080932361857811011
sS'qcd_scale'
p14
F1.567276732361172
sS'qcd_others_scale'
p15
F1
sS'z_scale'
p16
F1.0598900557289499
ssS'nOS'
p17
(dp18
g10
F1
sg11
F1
sg12
F0.019550358518797169
sg13
F0.080932361857811011
sg14
F0.26461019202208491
sg15
F1
sg16
F1.0598900557289499
ssssI01
(dp19
S'TRACK'
p20
(dp21
S'SS_TRK'
p22
(dp23
g10
F1
sg11
F1
sg12
F0.11579607641595484
sg13
F21.997733172341359
sg14
F1.567276732361172
sg15
F1
sg16
F288.08227145162994
ssS'nOS'
p24
(dp25
g10
F1
sg11
F1
sg12
F0.019550358518797169
sg13
F21.997733172341359
sg14
F0.26461019202208491
sg15
F1
sg16
F288.08227145162994
sssssS'CUT_PRESELECTION'
p26
(dp27
I00
(dp28
S'TRACK'
p29
(dp30
S'SS_TRK'
p31
(dp32
S'qcd_z_scale'
p33
F1
sS'qcd_data_scale'
p34
F1
sS'qcd_scale_error'
p35
F0.029028488625265737
sS'z_scale_error'
p36
F0.014069525622470295
sS'qcd_scale'
p37
F1.6892326005319465
sS'qcd_others_scale'
p38
F1
sS'z_scale'
p39
F0.81873712621780625
ssS'nOS'
p40
(dp41
g33
F1
sg34
F1
sg35
F0.0049080725316716801
sg36
F0.014069525622470295
sg37
F0.28561170487735887
sg38
F1
sg39
F0.81873712621780625
ssssI01
(dp42
S'TRACK'
p43
(dp44
S'SS_TRK'
p45
(dp46
g33
F1
sg34
F1
sg35
F0.029028488625265737
sg36
F4.5222530354927635
sg37
F1.6892326005319465
sg38
F1
sg39
F263.16000650340425
ssS'nOS'
p47
(dp48
g33
F1
sg34
F1
sg35
F0.0049080725316716801
sg36
F4.5222530354927635
sg37
F0.28561170487735887
sg38
F1
sg39
F263.16000650340425
sssssS'BOOSTED'
p49
(dp50
I00
(dp51
S'TRACK'
p52
(dp53
g8
(dp54
g10
F1
sg11
F1
sg12
F0.29793282560308371
sg13
F0.10219756555217444
sg14
F2.2907014265275714
sg15
F1
sg16
F0.79688056201425972
ssg17
(dp55
g10
F1
sg11
F1
sg12
F0.051177162262560319
sg13
F0.10219756555217444
sg14
F0.39348332417945736
sg15
F1
sg16
F0.79688056201425972
ssssI01
(dp56
S'TRACK'
p57
(dp58
g22
(dp59
g10
F1
sg11
F1
sg12
F0.29793282560308371
sg13
F35.272429003257685
sg14
F2.2907014265275714
sg15
F1
sg16
F275.03505485533566
ssg24
(dp60
g10
F1
sg11
F1
sg12
F0.051177162262560319
sg13
F35.272429003257685
sg14
F0.39348332417945736
sg15
F1
sg16
F275.03505485533566
sssssS'0J_NONBOOSTED'
p61
(dp62
I00
(dp63
S'TRACK'
p64
(dp65
S'SS_TRK'
p66
(dp67
g10
F1
sg11
F1
sg12
F0.022099205213386795
sg13
F0.014429475647463221
sg14
F1.5003313328964576
sg15
F1
sg16
F0.94191248511328918
ssS'nOS'
p68
(dp69
g10
F1
sg11
F1
sg12
F0.0040628136488688738
sg13
F0.014429475647463221
sg14
F0.27582741362231944
sg15
F1
sg16
F0.94191248511328918
ssssI01
(dp70
S'TRACK'
p71
(dp72
g22
(dp73
g10
F1
sg11
F1
sg12
F0.022099205213386795
sg13
F4.7318998499734679
sg14
F1.5003313328964576
sg15
F1
sg16
F308.88409640715395
ssg24
(dp74
g10
F1
sg11
F1
sg12
F0.0040628136488688738
sg13
F4.7318998499734679
sg14
F0.27582741362231944
sg15
F1
sg16
F308.88409640715395
sssssS'PRESELECTION'
p75
(dp76
I00
(dp77
S'TRACK'
p78
(dp79
S'SS_TRK'
p80
(dp81
S'qcd_z_scale'
p82
F1
sS'qcd_data_scale'
p83
F1
sS'qcd_scale_error'
p84
F0.035135773819882671
sS'z_scale_error'
p85
F0.024709575226605329
sS'qcd_scale'
p86
F1.5123839634933325
sS'qcd_others_scale'
p87
F1
sS'z_scale'
p88
F1.015808372235059
ssS'nOS'
p89
(dp90
g82
F1
sg83
F1
sg84
F0.006225936978606939
sg85
F0.024709575226605329
sg86
F0.26798918083986883
sg87
F1
sg88
F1.015808372235059
ssssI01
(dp91
S'TRACK'
p92
(dp93
S'SS_TRK'
p94
(dp95
g82
F1
sg83
F1
sg84
F0.035135773819882671
sg85
F7.9975872821847123
sg86
F1.5123839634933325
sg87
F1
sg88
F328.7800799657843
ssS'nOS'
p96
(dp97
g82
F1
sg83
F1
sg84
F0.006225936978606939
sg85
F7.9975872821847123
sg86
F0.26798918083986883
sg87
F1
sg88
F328.7800799657843
sssssS'1J_NONBOOSTED'
p98
(dp99
I00
(dp100
S'TRACK'
p101
(dp102
g8
(dp103
g10
F1
sg11
F1
sg12
F0.038833702353449413
sg13
F0.026152848263352131
sg14
F1.5073896386081278
sg15
F1
sg16
F0.96429084618766692
ssg17
(dp104
g10
F1
sg11
F1
sg12
F0.0065922702818815761
sg13
F0.026152848263352131
sg14
F0.25588906840168696
sg15
F1
sg16
F0.96429084618766692
ssssI01
(dp105
S'TRACK'
p106
(dp107
g22
(dp108
g10
F1
sg11
F1
sg12
F0.038833702353449413
sg13
F8.3683840426289891
sg14
F1.5073896386081278
sg15
F1
sg16
F308.5536247689667
ssg24
(dp109
g10
F1
sg11
F1
sg12
F0.0065922702818815761
sg13
F8.3683840426289891
sg14
F0.25588906840168696
sg15
F1
sg16
F308.5536247689667
ssssss.