(dp1
F12
(dp2
S'VBF'
p3
(dp4
I00
(dp5
S'TRACK'
p6
(dp7
S'SS_TRK'
p8
(dp9
S'qcd_z_scale'
p10
F1
sS'qcd_data_scale'
p11
F1
sS'qcd_scale_error'
p12
F0.23114045919185039
sS'z_scale_error'
p13
F0.17735543679764812
sS'qcd_scale'
p14
F1.5788731444166304
sS'qcd_others_scale'
p15
F1
sS'z_scale'
p16
F1.1363243970214021
ssS'nOS'
p17
(dp18
g10
F1
sg11
F1
sg12
F0.039133877081882526
sg13
F0.17735543679764812
sg14
F0.267315500616018
sg15
F1
sg16
F1.1363243970214021
ssssI01
(dp19
S'TRACK'
p20
(dp21
S'SS_TRK'
p22
(dp23
g10
F1
sg11
F1
sg12
F0.23114045919185039
sg13
F48.205902877183597
sg14
F1.5788731444166304
sg15
F1
sg16
F308.85742500403751
ssS'nOS'
p24
(dp25
g10
F1
sg11
F1
sg12
F0.039133877081882526
sg13
F48.205902877183597
sg14
F0.267315500616018
sg15
F1
sg16
F308.85742500403751
sssssS'CUT_PRESELECTION'
p26
(dp27
I00
(dp28
S'TRACK'
p29
(dp30
S'SS_TRK'
p31
(dp32
S'qcd_z_scale'
p33
F1
sS'qcd_data_scale'
p34
F1
sS'qcd_scale_error'
p35
F0.029028488625265737
sS'z_scale_error'
p36
F0.014069525622470295
sS'qcd_scale'
p37
F1.6892326005319465
sS'qcd_others_scale'
p38
F1
sS'z_scale'
p39
F0.81873712621780625
ssS'nOS'
p40
(dp41
g33
F1
sg34
F1
sg35
F0.0049080725316716801
sg36
F0.014069525622470295
sg37
F0.28561170487735887
sg38
F1
sg39
F0.81873712621780625
ssssI01
(dp42
S'TRACK'
p43
(dp44
S'SS_TRK'
p45
(dp46
g33
F1
sg34
F1
sg35
F0.029028488625265737
sg36
F4.5222530354927635
sg37
F1.6892326005319465
sg38
F1
sg39
F263.16000650340425
ssS'nOS'
p47
(dp48
g33
F1
sg34
F1
sg35
F0.0049080725316716801
sg36
F4.5222530354927635
sg37
F0.28561170487735887
sg38
F1
sg39
F263.16000650340425
sssssS'BOOSTED'
p49
(dp50
I00
(dp51
S'TRACK'
p52
(dp53
g8
(dp54
g10
F1
sg11
F1
sg12
F0.46195695594672548
sg13
F0.10775120928281018
sg14
F3.0774900301213171
sg15
F1
sg16
F0.71885823201903309
ssg17
(dp55
g10
F1
sg11
F1
sg12
F0.07888075116523495
sg13
F0.10775120928281018
sg14
F0.52549208785479651
sg15
F1
sg16
F0.71885823201903309
ssssI01
(dp56
S'TRACK'
p57
(dp58
g22
(dp59
g10
F1
sg11
F1
sg12
F0.46195695594672548
sg13
F37.18921149352385
sg14
F3.0774900301213171
sg15
F1
sg16
F248.10645748067131
ssg24
(dp60
g10
F1
sg11
F1
sg12
F0.07888075116523495
sg13
F37.18921149352385
sg14
F0.52549208785479651
sg15
F1
sg16
F248.10645748067131
sssssS'0J_NONBOOSTED'
p61
(dp62
I00
(dp63
S'TRACK'
p64
(dp65
S'SS_TRK'
p66
(dp67
g10
F1
sg11
F1
sg12
F0.023991782135980182
sg13
F0.01603276777050789
sg14
F1.4938757287311331
sg15
F1
sg16
F0.95964294950564966
ssS'nOS'
p68
(dp69
g10
F1
sg11
F1
sg12
F0.0044112617276499148
sg13
F0.01603276777050789
sg14
F0.274672251968061
sg15
F1
sg16
F0.95964294950564966
ssssI01
(dp70
S'TRACK'
p71
(dp72
g22
(dp73
g10
F1
sg11
F1
sg12
F0.023991782135980182
sg13
F5.2576720915886703
sg14
F1.4938757287311331
sg15
F1
sg16
F314.69849908178753
ssg24
(dp74
g10
F1
sg11
F1
sg12
F0.0044112617276499148
sg13
F5.2576720915886703
sg14
F0.274672251968061
sg15
F1
sg16
F314.69849908178753
sssssS'PRESELECTION'
p75
(dp76
I00
(dp77
S'TRACK'
p78
(dp79
S'SS_TRK'
p80
(dp81
S'qcd_z_scale'
p82
F1
sS'qcd_data_scale'
p83
F1
sS'qcd_scale_error'
p84
F0.024802360157245542
sS'z_scale_error'
p85
F0.015007431760874759
sS'qcd_scale'
p86
F1.5544992508919209
sS'qcd_others_scale'
p87
F1
sS'z_scale'
p88
F0.89770469266820629
ssS'SS'
p89
(dp90
g82
F1
sg83
F1
sg84
F0.024802360157245542
sg85
F0.015007431760874759
sg86
F1.4836112838742281
sg87
F1
sg88
F0.89770469266820607
ssS'nOS'
p91
(dp92
g82
F1
sg83
F1
sg84
F0.0042570393719718698
sg85
F0.015007431760874759
sg86
F0.26681188696530106
sg87
F1
sg88
F0.89770469266820629
ssssI01
(dp93
S'TRACK'
p94
(dp95
S'SS_TRK'
p96
(dp97
g82
F1
sg83
F1
sg84
F0.024802360157245542
sg85
F4.8684103507490013
sg86
F1.5544992508919209
sg87
F1
sg88
F291.21537164644775
ssg89
(dp98
g82
F1
sg83
F1
sg84
F0.024802360157245542
sg85
F4.7838705768171677
sg86
F1.4836112838742281
sg87
F1
sg88
F286.15842699496039
ssS'nOS'
p99
(dp100
g82
F1
sg83
F1
sg84
F0.0042570393719718698
sg85
F4.8684103507490013
sg86
F0.26681188696530106
sg87
F1
sg88
F291.21537164644775
sssssS'1J_NONBOOSTED'
p101
(dp102
I00
(dp103
S'TRACK'
p104
(dp105
g8
(dp106
g10
F1
sg11
F1
sg12
F0.045045075332381619
sg13
F0.0287138728879037
sg14
F1.5311390799782194
sg15
F1
sg16
F0.91208532845902601
ssg17
(dp107
g10
F1
sg11
F1
sg12
F0.0076410655094721197
sg13
F0.0287138728879037
sg14
F0.25972948047921202
sg15
F1
sg16
F0.91208532845902601
ssssI01
(dp108
S'TRACK'
p109
(dp110
g22
(dp111
g10
F1
sg11
F1
sg12
F0.045045075332381619
sg13
F9.1878602765392081
sg14
F1.5311390799782194
sg15
F1
sg16
F291.84891187887069
ssg24
(dp112
g10
F1
sg11
F1
sg12
F0.0076410655094721197
sg13
F9.1878602765392081
sg14
F0.25972948047921202
sg15
F1
sg16
F291.84891187887069
sssssS'PRESELECTION_DETA_CONTROL'
p113
(dp114
I00
(dp115
S'TRACK'
p116
(dp117
S'SS_TRK'
p118
(dp119
S'qcd_z_scale'
p120
F1
sS'qcd_data_scale'
p121
F1
sS'qcd_scale_error'
p122
F0.034515099769683963
sS'z_scale_error'
p123
F0.036507333243183865
sS'qcd_scale'
p124
F1.2918482094987627
sS'qcd_others_scale'
p125
F1
sS'z_scale'
p126
F1.3590161990743312
ssS'nOS'
p127
(dp128
g120
F1
sg121
F1
sg122
F0.0063038183087544249
sg123
F0.036507333243183865
sg124
F0.23594242663388623
sg125
F1
sg126
F1.3590161990743312
ssssI01
(dp129
S'TRACK'
p130
(dp131
g118
(dp132
g120
F1
sg121
F1
sg122
F0.034515099769683963
sg123
F10.67318577694377
sg124
F1.2918482094987627
sg125
F1
sg126
F397.31832149927055
ssg127
(dp133
g120
F1
sg121
F1
sg122
F0.0063038183087544249
sg123
F10.67318577694377
sg124
F0.23594242663388623
sg125
F1
sg126
F397.31832149927055
ssssss.