(dp1
F12
(dp2
S'VBF'
p3
(dp4
I00
(dp5
S'TRACK'
p6
(F1.2360043015217745
F0.21040754404275452
F1.3518900856166298
F0.40767249244736825
tp7
sssS'BOOSTED'
p8
(dp9
I00
(dp10
S'TRACK'
p11
(F1.2601978229741637
F0.23074605196482578
F0.94914702165536058
F0.072288613199543383
tp12
sssS'0J_NONBOOSTED'
p13
(dp14
I00
(dp15
S'TRACK'
p16
(F1.2498964076291554
F0.039591487700789685
F1.0479899876801229
F0.048816298546596526
tp17
sssS'0J'
p18
(dp19
I00
(dp20
S'TRACK'
p21
(F1.2493528491429031
F0.03938800366422146
F1.0763710142669118
F0.049859743888964969
tp22
sssS'1J'
p23
(dp24
I00
(dp25
S'TRACK'
p26
(F1.2260401485636372
F0.085305010423704974
F0.95767507128734908
F0.072714150361324004
tp27
sssS'1J_NONBOOSTED'
p28
(dp29
I00
(dp30
S'TRACK'
p31
(F1.1859002853142289
F0.042820834069991376
F1.1843375024593144
F0.066587860643073538
tp32
sssS'2J'
p33
(dp34
I00
(dp35
S'TRACK'
p36
(F1.0582409395913375
F0.099246687793130672
F1.0874003726013743
F0.093143606768672949
tp37
ssss.