(dp1
F11
(dp2
S'PRESELECTION'
p3
(dp4
I00
(dp5
S'DETA_TAU1_TAU2'
p6
(dp7
S'OS_NONISOL'
p8
(dp9
S'qcd_z_scale'
p10
F1
sS'qcd_data_scale'
p11
F1
sS'qcd_scale_error'
p12
F0.35726148724566048
sS'z_scale_error'
p13
F0.11863767496022568
sS'qcd_scale'
p14
F1.838907014601123
sS'qcd_others_scale'
p15
F1
sS'z_scale'
p16
F1.3139362514191613
ssS'SS'
p17
(dp18
S'qcd_z_scale'
p19
F1
sS'qcd_data_scale'
p20
F1
sS'qcd_scale_error'
p21
F0.22784891217720557
sS'z_scale_error'
p22
F0.17301157026520259
sS'qcd_scale'
p23
F1.1430961456432187
sS'qcd_others_scale'
p24
F1
sS'z_scale'
p25
F1.0477913234722671
ssS'nOS_NONISOL'
p26
(dp27
S'qcd_z_scale'
p28
F1
sS'qcd_data_scale'
p29
F1
sS'qcd_scale_error'
p30
F0.10388517013061575
sS'z_scale_error'
p31
F0.1411091968336618
sS'qcd_scale'
p32
F0.65800808304664882
sS'qcd_others_scale'
p33
F1
sS'z_scale'
p34
F1.0709014849994702
ssS'SS_NONISOL'
p35
(dp36
S'qcd_z_scale'
p37
F1
sS'qcd_data_scale'
p38
F1
sS'qcd_scale_error'
p39
F1.1336587087308438
sS'z_scale_error'
p40
F0.24625086555236547
sS'qcd_scale'
p41
F3.9092899885949342
sS'qcd_others_scale'
p42
F1
sS'z_scale'
p43
F1.1040003850760081
ssS'nOS_ISOL'
p44
(dp45
S'qcd_z_scale'
p46
F1
sS'qcd_data_scale'
p47
F1
sS'qcd_scale_error'
p48
F0.030314913490439702
sS'z_scale_error'
p49
F0.13473171475750217
sS'qcd_scale'
p50
F0.21009264848245682
sS'qcd_others_scale'
p51
F1
sS'z_scale'
p52
F1.0566865538086228
ssS'SS_ISOL'
p53
(dp54
S'qcd_z_scale'
p55
F1
sS'qcd_data_scale'
p56
F1
sS'qcd_scale_error'
p57
F0.34872545343043732
sS'z_scale_error'
p58
F0.188509821620265
sS'qcd_scale'
p59
F1.6269021248746149
sS'qcd_others_scale'
p60
F1
sS'z_scale'
p61
F1.0198871549550621
ssS'NONISOL'
p62
(dp63
S'qcd_z_scale'
p64
F1
sS'qcd_data_scale'
p65
F1
sS'qcd_scale_error'
p66
F0.078355565257169427
sS'z_scale_error'
p67
F0.13566111664050057
sS'qcd_scale'
p68
F0.51105279825523919
sS'qcd_others_scale'
p69
F1
sS'z_scale'
p70
F1.0850170816973823
ssS'nOS'
p71
(dp72
S'qcd_z_scale'
p73
F1
sS'qcd_data_scale'
p74
F1
sS'qcd_scale_error'
p75
F0.022831527222518161
sS'z_scale_error'
p76
F0.1333944551758213
sS'qcd_scale'
p77
F0.15979860347023084
sS'qcd_others_scale'
p78
F1
sS'z_scale'
p79
F1.056914044492383
ssssI01
(dp80
S'DETA_TAU1_TAU2'
p81
(dp82
S'OS_NONISOL'
p83
(dp84
S'qcd_z_scale'
p85
F1
sS'qcd_data_scale'
p86
F1
sS'qcd_scale_error'
p87
F0.46192054746118116
sS'z_scale_error'
p88
F33.601705897879079
sS'qcd_scale'
p89
F2.2518719958349291
sS'qcd_others_scale'
p90
F1
sS'z_scale'
p91
F334.19621690722323
ssS'SS'
p92
(dp93
S'qcd_z_scale'
p94
F1
sS'qcd_data_scale'
p95
F1
sS'qcd_scale_error'
p96
F0.2342629619500036
sS'z_scale_error'
p97
F46.78991045597094
sS'qcd_scale'
p98
F1.1778529308150916
sS'qcd_others_scale'
p99
F1
sS'z_scale'
p100
F270.09740231522414
ssS'nOS_NONISOL'
p101
(dp102
S'qcd_z_scale'
p103
F1
sS'qcd_data_scale'
p104
F1
sS'qcd_scale_error'
p105
F0.10422140363336611
sS'z_scale_error'
p106
F37.154850298666986
sS'qcd_scale'
p107
F0.66142052855873057
sS'qcd_others_scale'
p108
F1
sS'z_scale'
p109
F282.98087602477489
ssS'SS_NONISOL'
p110
(dp111
S'qcd_z_scale'
p112
F1
sS'qcd_data_scale'
p113
F1
sS'qcd_scale_error'
p114
F1.1259490300041726
sS'z_scale_error'
p115
F64.32320244568939
sS'qcd_scale'
p116
F3.9004062984433872
sS'qcd_others_scale'
p117
F1
sS'z_scale'
p118
F292.62840682427043
ssS'nOS_ISOL'
p119
(dp120
S'qcd_z_scale'
p121
F1
sS'qcd_data_scale'
p122
F1
sS'qcd_scale_error'
p123
F0.03103413522326905
sS'z_scale_error'
p124
F36.270181220907865
sS'qcd_scale'
p125
F0.21179686650896262
sS'qcd_others_scale'
p126
F1
sS'z_scale'
p127
F277.7170241258263
ssS'SS_ISOL'
p128
(dp129
S'qcd_z_scale'
p130
F1
sS'qcd_data_scale'
p131
F1
sS'qcd_scale_error'
p132
F0.37144476868752341
sS'z_scale_error'
p133
F53.361187053866196
sS'qcd_scale'
p134
F1.7078128506074295
sS'qcd_others_scale'
p135
F1
sS'z_scale'
p136
F257.76755083185924
ssS'NONISOL'
p137
(dp138
S'qcd_z_scale'
p139
F1
sS'qcd_data_scale'
p140
F1
sS'qcd_scale_error'
p141
F0.079907547388850753
sS'z_scale_error'
p142
F35.738108560887262
sS'qcd_scale'
p143
F0.5220433277202905
sS'qcd_others_scale'
p144
F1
sS'z_scale'
p145
F286.48600040965692
ssS'nOS'
p146
(dp147
S'qcd_z_scale'
p148
F1
sS'qcd_data_scale'
p149
F1
sS'qcd_scale_error'
p150
F0.023285198686036991
sS'z_scale_error'
p151
F35.758830684035978
sS'qcd_scale'
p152
F0.16084435259010704
sS'qcd_others_scale'
p153
F1
sS'z_scale'
p154
F278.31339608512661
ssssssF12
(dp155
S'PRESELECTION'
p156
(dp157
I00
(dp158
S'DETA_TAU1_TAU2'
p159
(dp160
S'OS_NONISOL'
p161
(dp162
S'qcd_z_scale'
p163
F1
sS'qcd_data_scale'
p164
F1
sS'qcd_scale_error'
p165
F0.046450921500087457
sS'z_scale_error'
p166
F0.041027682887028932
sS'qcd_scale'
p167
F0.91378915109555514
sS'qcd_others_scale'
p168
F1
sS'z_scale'
p169
F0.96376987031775452
ssS'SS'
p170
(dp171
S'qcd_z_scale'
p172
F1
sS'qcd_data_scale'
p173
F1
sS'qcd_scale_error'
p174
F0.035028860310396544
sS'z_scale_error'
p175
F0.041911576580895137
sS'qcd_scale'
p176
F0.67146968327287015
sS'qcd_others_scale'
p177
F1
sS'z_scale'
p178
F0.96997070377223005
ssS'nOS_NONISOL'
p179
(dp180
S'qcd_z_scale'
p181
F1
sS'qcd_data_scale'
p182
F1
sS'qcd_scale_error'
p183
F0.018628008359901568
sS'z_scale_error'
p184
F0.044072578337706073
sS'qcd_scale'
p185
F0.35572513467435618
sS'qcd_others_scale'
p186
F1
sS'z_scale'
p187
F0.92817807127056862
ssS'SS_NONISOL'
p188
(dp189
S'qcd_z_scale'
p190
F1
sS'qcd_data_scale'
p191
F1
sS'qcd_scale_error'
p192
F0.065159290997166303
sS'z_scale_error'
p193
F0.043780330217834548
sS'qcd_scale'
p194
F1.2513756895627166
sS'qcd_others_scale'
p195
F1
sS'z_scale'
p196
F0.92915642661632525
ssS'nOS_ISOL'
p197
(dp198
S'qcd_z_scale'
p199
F1
sS'qcd_data_scale'
p200
F1
sS'qcd_scale_error'
p201
F0.034471222346735109
sS'z_scale_error'
p202
F0.04283476565392106
sS'qcd_scale'
p203
F0.64407384018505287
sS'qcd_others_scale'
p204
F1
sS'z_scale'
p205
F0.97302993544311644
ssS'SS_ISOL'
p206
(dp207
S'qcd_z_scale'
p208
F1
sS'qcd_data_scale'
p209
F1
sS'qcd_scale_error'
p210
F0.093113731181058326
sS'z_scale_error'
p211
F0.046532920243756035
sS'qcd_scale'
p212
F1.4529068097111486
sS'qcd_others_scale'
p213
F1
sS'z_scale'
p214
F1.0167356736226101
ssS'NONISOL'
p215
(dp216
S'qcd_z_scale'
p217
F1
sS'qcd_data_scale'
p218
F1
sS'qcd_scale_error'
p219
F0.013319287162600108
sS'z_scale_error'
p220
F0.043399914567260958
sS'qcd_scale'
p221
F0.25683930653629233
sS'qcd_others_scale'
p222
F1
sS'z_scale'
p223
F0.93338553401381374
ssS'nOS'
p224
(dp225
S'qcd_z_scale'
p226
F1
sS'qcd_data_scale'
p227
F1
sS'qcd_scale_error'
p228
F0.01211707105663808
sS'z_scale_error'
p229
F0.043735128762978137
sS'qcd_scale'
p230
F0.2297102671649523
sS'qcd_others_scale'
p231
F1
sS'z_scale'
p232
F0.94170087014616144
ssssI01
(dp233
S'DETA_TAU1_TAU2'
p234
(dp235
S'OS_NONISOL'
p236
(dp237
S'qcd_z_scale'
p238
F1
sS'qcd_data_scale'
p239
F1
sS'qcd_scale_error'
p240
F0.046867258750935711
sS'z_scale_error'
p241
F12.978055479073218
sS'qcd_scale'
p242
F0.9345061620061178
sS'qcd_others_scale'
p243
F1
sS'z_scale'
p244
F304.22981366593774
ssS'SS'
p245
(dp246
S'qcd_z_scale'
p247
F1
sS'qcd_data_scale'
p248
F1
sS'qcd_scale_error'
p249
F0.034978764295013537
sS'z_scale_error'
p250
F13.31310560593959
sS'qcd_scale'
p251
F0.67977675828340178
sS'qcd_others_scale'
p252
F1
sS'z_scale'
p253
F304.84831950478463
ssS'nOS_NONISOL'
p254
(dp255
S'qcd_z_scale'
p256
F1
sS'qcd_data_scale'
p257
F1
sS'qcd_scale_error'
p258
F0.01856102969483275
sS'z_scale_error'
p259
F13.931184229590601
sS'qcd_scale'
p260
F0.35976132898690222
sS'qcd_others_scale'
p261
F1
sS'z_scale'
p262
F292.50670847496781
ssS'SS_NONISOL'
p263
(dp264
S'qcd_z_scale'
p265
F1
sS'qcd_data_scale'
p266
F1
sS'qcd_scale_error'
p267
F0.065002985567643792
sS'z_scale_error'
p268
F13.881713087432916
sS'qcd_scale'
p269
F1.2689235807768042
sS'qcd_others_scale'
p270
F1
sS'z_scale'
p271
F291.47828740380248
ssS'nOS_ISOL'
p272
(dp273
S'qcd_z_scale'
p274
F1
sS'qcd_data_scale'
p275
F1
sS'qcd_scale_error'
p276
F0.034276701149418727
sS'z_scale_error'
p277
F13.580386703921718
sS'qcd_scale'
p278
F0.64928623012532172
sS'qcd_others_scale'
p279
F1
sS'z_scale'
p280
F306.38181341181877
ssS'SS_ISOL'
p281
(dp282
S'qcd_z_scale'
p283
F1
sS'qcd_data_scale'
p284
F1
sS'qcd_scale_error'
p285
F0.092742766743488428
sS'z_scale_error'
p286
F14.813631652782471
sS'qcd_scale'
p287
F1.4773068672200889
sS'qcd_others_scale'
p288
F1
sS'z_scale'
p289
F318.73610750833825
ssS'NONISOL'
p290
(dp291
S'qcd_z_scale'
p292
F1
sS'qcd_data_scale'
p293
F1
sS'qcd_scale_error'
p294
F0.013311343445062631
sS'z_scale_error'
p295
F13.714110057966421
sS'qcd_scale'
p296
F0.26031516278955863
sS'qcd_others_scale'
p297
F1
sS'z_scale'
p298
F294.5115032244999
ssS'nOS'
p299
(dp300
S'qcd_z_scale'
p301
F1
sS'qcd_data_scale'
p302
F1
sS'qcd_scale_error'
p303
F0.012063141516054409
sS'z_scale_error'
p304
F13.836014331230603
sS'qcd_scale'
p305
F0.23201338334679203
sS'qcd_others_scale'
p306
F1
sS'z_scale'
p307
F296.73088395510371
ssssss.