(dp1
F12
(dp2
S'CUT_PRESELECTION_DETA_CONTROL'
p3
(dp4
I01
(dp5
S'MASS'
p6
(dp7
S'nOS'
p8
(F0.1082327968064517
F0.052354872551929478
F1130.4059187740379
F376.22120169517871
tp9
ssssS'VBF'
p10
(dp11
I01
(dp12
S'TRACK'
p13
(dp14
S'SS_TRK'
p15
(F1.1474948323416139
F0.1580350436705743
F367.46709530334209
F37.359755909725145
tp16
sS'nOS'
p17
(F0.19604261783818286
F0.026999340474700796
F367.46709530334209
F37.359755909725145
tp18
ssssS'CUT_PRESELECTION'
p19
(dp20
I00
(dp21
S'TRACK'
p22
(dp23
S'SS_TRK'
p24
(F1.3506913529263169
F0.023871389928131759
F1.1115737440830358
F0.033712664988883125
tp25
sS'nOS'
p26
(F0.23556924093441567
F0.0041633236144114271
F1.1115737440830358
F0.033712664988883125
tp27
sssI01
(dp28
S'TRACK'
p29
(dp30
S'SS_TRK'
p31
(F1.1911113529249524
F0.041468465182589842
F406.66069641633226
F15.67675155644803
tp32
sS'nOS'
p33
(F0.20844599474615161
F0.0072570339073291636
F406.66069641633226
F15.67675155644803
tp34
ssS'MASS'
p35
(dp36
S'SS_TRK'
p37
(F1.9080011734624851
F0.081233682906077229
F137.41307780349564
F22.577172012860174
tp38
sS'nOS'
p39
(F0.27734783995147533
F0.010375568054712271
F237.06221623578162
F16.75275262101966
tp40
ssssS'BOOSTED'
p41
(dp42
I01
(dp43
S'TRACK'
p44
(dp45
g15
(F1.1252326774048638
F0.36467837464245706
F322.53805436761087
F20.574968675834821
tp46
sS'nOS'
p47
(F0.21364035561429442
F0.069239028698617366
F322.53805436761087
F20.574968675834821
tp48
ssssS'0J_NONBOOSTED'
p49
(dp50
I01
(dp51
S'TRACK'
p52
(dp53
g15
(F1.2064605500288574
F0.041602296445588882
F439.66112828888106
F21.399882422385389
tp54
sg47
(F0.23276290099398075
F0.008026347159428647
F439.66112828888106
F21.399882422385389
tp55
ssssS'PRESELECTION'
p56
(dp57
I01
(dp58
S'TRACK'
p59
(dp60
S'SS_TRK'
p61
(F1.1788842246350173
F0.041050956789979831
F422.63917256607385
F17.244679017497635
tp62
sS'nOS'
p63
(F0.21950995785631905
F0.0076437478817904135
F422.63917256607385
F17.244679017497635
tp64
ssssS'1J_NONBOOSTED'
p65
(dp66
I01
(dp67
S'TRACK'
p68
(dp69
g15
(F1.1161250856914207
F0.047843427471868427
F431.30355176418044
F20.645723552315594
tp70
sg47
(F0.19263205601978145
F0.0082572983253306632
F431.30355176418044
F20.645723552315594
tp71
sssss.