(dp1
F11
(dp2
S'PRESELECTION'
p3
(dp4
I00
(dp5
S'DETA_TAU1_TAU2'
p6
(dp7
S'OS_NONISOL'
p8
(dp9
S'qcd_z_scale'
p10
F1
sS'qcd_data_scale'
p11
F1
sS'qcd_scale_error'
p12
F0.35890007592584605
sS'z_scale_error'
p13
F0.11982642986682232
sS'qcd_scale'
p14
F1.8394379035100157
sS'qcd_others_scale'
p15
F1
sS'z_scale'
p16
F1.3138649942236311
ssS'SS'
p17
(dp18
S'qcd_z_scale'
p19
F1
sS'qcd_data_scale'
p20
F1
sS'qcd_scale_error'
p21
F0.22671936115043728
sS'z_scale_error'
p22
F0.17252207850751161
sS'qcd_scale'
p23
F1.1371759120659333
sS'qcd_others_scale'
p24
F1
sS'z_scale'
p25
F1.0523531488174056
ssS'nOS_NONISOL'
p26
(dp27
S'qcd_z_scale'
p28
F1
sS'qcd_data_scale'
p29
F1
sS'qcd_scale_error'
p30
F0.10384610043154269
sS'z_scale_error'
p31
F0.14105874381608385
sS'qcd_scale'
p32
F0.65797087717111258
sS'qcd_others_scale'
p33
F1
sS'z_scale'
p34
F1.0710325868757833
ssS'SS_NONISOL'
p35
(dp36
S'qcd_z_scale'
p37
F1
sS'qcd_data_scale'
p38
F1
sS'qcd_scale_error'
p39
F1.137441329837046
sS'z_scale_error'
p40
F0.24642986201807202
sS'qcd_scale'
p41
F3.9237911535413605
sS'qcd_others_scale'
p42
F1
sS'z_scale'
p43
F1.1039614989898161
ssS'nOS_ISOL'
p44
(dp45
S'qcd_z_scale'
p46
F1
sS'qcd_data_scale'
p47
F1
sS'qcd_scale_error'
p48
F0.030317536628956431
sS'z_scale_error'
p49
F0.1347637000578753
sS'qcd_scale'
p50
F0.21001991535224512
sS'qcd_others_scale'
p51
F1
sS'z_scale'
p52
F1.0569410169126845
ssS'SS_ISOL'
p53
(dp54
S'qcd_z_scale'
p55
F1
sS'qcd_data_scale'
p56
F1
sS'qcd_scale_error'
p57
F0.34953635441774439
sS'z_scale_error'
p58
F0.18880557232467785
sS'qcd_scale'
p59
F1.6288390573128968
sS'qcd_others_scale'
p60
F1
sS'z_scale'
p61
F1.0188741488697524
ssS'NONISOL'
p62
(dp63
S'qcd_z_scale'
p64
F1
sS'qcd_data_scale'
p65
F1
sS'qcd_scale_error'
p66
F0.078303704425534124
sS'z_scale_error'
p67
F0.13555938104502363
sS'qcd_scale'
p68
F0.51177733509463752
sS'qcd_others_scale'
p69
F1
sS'z_scale'
p70
F1.0841584226362242
ssS'nOS'
p71
(dp72
S'qcd_z_scale'
p73
F1
sS'qcd_data_scale'
p74
F1
sS'qcd_scale_error'
p75
F0.022832595073972631
sS'z_scale_error'
p76
F0.13342015558991052
sS'qcd_scale'
p77
F0.15975219163091353
sS'qcd_others_scale'
p78
F1
sS'z_scale'
p79
F1.0571288173375213
ssssI01
(dp80
S'DETA_TAU1_TAU2'
p81
(dp82
S'OS_NONISOL'
p83
(dp84
S'qcd_z_scale'
p85
F1
sS'qcd_data_scale'
p86
F1
sS'qcd_scale_error'
p87
F0.47088864032345934
sS'z_scale_error'
p88
F28.964720540732788
sS'qcd_scale'
p89
F2.3066777940387646
sS'qcd_others_scale'
p90
F1
sS'z_scale'
p91
F276.15647153466051
ssS'SS'
p92
(dp93
S'qcd_z_scale'
p94
F1
sS'qcd_data_scale'
p95
F1
sS'qcd_scale_error'
p96
F0.23638341369982396
sS'z_scale_error'
p97
F40.460390776145431
sS'qcd_scale'
p98
F1.2194553807739148
sS'qcd_others_scale'
p99
F1
sS'z_scale'
p100
F222.03084742492777
ssS'nOS_NONISOL'
p101
(dp102
S'qcd_z_scale'
p103
F1
sS'qcd_data_scale'
p104
F1
sS'qcd_scale_error'
p105
F0.10289816013515793
sS'z_scale_error'
p106
F31.139778883186601
sS'qcd_scale'
p107
F0.67651214225920631
sS'qcd_others_scale'
p108
F1
sS'z_scale'
p109
F235.72284444545147
ssS'SS_NONISOL'
p110
(dp111
S'qcd_z_scale'
p112
F1
sS'qcd_data_scale'
p113
F1
sS'qcd_scale_error'
p114
F1.1482283454156794
sS'z_scale_error'
p115
F56.085399710026905
sS'qcd_scale'
p116
F4.0552722502774969
sS'qcd_others_scale'
p117
F1
sS'z_scale'
p118
F240.81503033651867
ssS'nOS_ISOL'
p119
(dp120
S'qcd_z_scale'
p121
F1
sS'qcd_data_scale'
p122
F1
sS'qcd_scale_error'
p123
F0.030701888026599431
sS'z_scale_error'
p124
F30.520405360818099
sS'qcd_scale'
p125
F0.21657873352778059
sS'qcd_others_scale'
p126
F1
sS'z_scale'
p127
F230.72763227901899
ssS'SS_ISOL'
p128
(dp129
S'qcd_z_scale'
p130
F1
sS'qcd_data_scale'
p131
F1
sS'qcd_scale_error'
p132
F0.37274876304331006
sS'z_scale_error'
p133
F45.551540059425392
sS'qcd_scale'
p134
F1.7678805568379885
sS'qcd_others_scale'
p135
F1
sS'z_scale'
p136
F211.31690140133881
ssS'NONISOL'
p137
(dp138
S'qcd_z_scale'
p139
F1
sS'qcd_data_scale'
p140
F1
sS'qcd_scale_error'
p141
F0.078777646573540597
sS'z_scale_error'
p142
F29.984624331216565
sS'qcd_scale'
p143
F0.53385769378423298
sS'qcd_others_scale'
p144
F1
sS'z_scale'
p145
F238.26581724382871
ssS'nOS'
p146
(dp147
S'qcd_z_scale'
p148
F1
sS'qcd_data_scale'
p149
F1
sS'qcd_scale_error'
p150
F0.023029296876820139
sS'z_scale_error'
p151
F30.054389723941775
sS'qcd_scale'
p152
F0.16479240806237383
sS'qcd_others_scale'
p153
F1
sS'z_scale'
p154
F230.94050060350918
ssssssF12
(dp155
S'PRESELECTION'
p156
(dp157
I00
(dp158
S'DETA_TAU1_TAU2'
p159
(dp160
S'OS_NONISOL'
p161
(dp162
S'qcd_z_scale'
p163
F1
sS'qcd_data_scale'
p164
F1
sS'qcd_scale_error'
p165
F0.046469750943334658
sS'z_scale_error'
p166
F0.041118780338099216
sS'qcd_scale'
p167
F0.91496691082634352
sS'qcd_others_scale'
p168
F1
sS'z_scale'
p169
F0.96351473173722058
ssS'SS'
p170
(dp171
S'qcd_z_scale'
p172
F1
sS'qcd_data_scale'
p173
F1
sS'qcd_scale_error'
p174
F0.035025480651103752
sS'z_scale_error'
p175
F0.041912208255667126
sS'qcd_scale'
p176
F0.67139383095711258
sS'qcd_others_scale'
p177
F1
sS'z_scale'
p178
F0.97006046526814638
ssS'nOS_NONISOL'
p179
(dp180
S'qcd_z_scale'
p181
F1
sS'qcd_data_scale'
p182
F1
sS'qcd_scale_error'
p183
F0.018627051826973575
sS'z_scale_error'
p184
F0.044075250421662583
sS'qcd_scale'
p185
F0.35565676884407504
sS'qcd_others_scale'
p186
F1
sS'z_scale'
p187
F0.92832143538377165
ssS'SS_NONISOL'
p188
(dp189
S'qcd_z_scale'
p190
F1
sS'qcd_data_scale'
p191
F1
sS'qcd_scale_error'
p192
F0.065155229926495709
sS'z_scale_error'
p193
F0.043779963420104241
sS'qcd_scale'
p194
F1.2512072850791547
sS'qcd_others_scale'
p195
F1
sS'z_scale'
p196
F0.92926782920553952
ssS'nOS_ISOL'
p197
(dp198
S'qcd_z_scale'
p199
F1
sS'qcd_data_scale'
p200
F1
sS'qcd_scale_error'
p201
F0.034502099183076305
sS'z_scale_error'
p202
F0.042862345577234728
sS'qcd_scale'
p203
F0.64456324201741344
sS'qcd_others_scale'
p204
F1
sS'z_scale'
p205
F0.97229365117702604
ssS'SS_ISOL'
p206
(dp207
S'qcd_z_scale'
p208
F1
sS'qcd_data_scale'
p209
F1
sS'qcd_scale_error'
p210
F0.09280687330572146
sS'z_scale_error'
p211
F0.046460675555246515
sS'qcd_scale'
p212
F1.4460390257800773
sS'qcd_others_scale'
p213
F1
sS'z_scale'
p214
F1.0202909231765007
ssS'NONISOL'
p215
(dp216
S'qcd_z_scale'
p217
F1
sS'qcd_data_scale'
p218
F1
sS'qcd_scale_error'
p219
F0.013319954848813919
sS'z_scale_error'
p220
F0.043404535080181959
sS'qcd_scale'
p221
F0.25667847107645869
sS'qcd_others_scale'
p222
F1
sS'z_scale'
p223
F0.9338887756665365
ssS'nOS'
p224
(dp225
S'qcd_z_scale'
p226
F1
sS'qcd_data_scale'
p227
F1
sS'qcd_scale_error'
p228
F0.012116841591107833
sS'z_scale_error'
p229
F0.043741616192921717
sS'qcd_scale'
p230
F0.22961732705207114
sS'qcd_others_scale'
p231
F1
sS'z_scale'
p232
F0.94198749911951973
ssssI01
(dp233
S'DETA_TAU1_TAU2'
p234
(dp235
S'OS_NONISOL'
p236
(dp237
S'qcd_z_scale'
p238
F1
sS'qcd_data_scale'
p239
F1
sS'qcd_scale_error'
p240
F0.046892902886900345
sS'z_scale_error'
p241
F13.003366952824251
sS'qcd_scale'
p242
F0.9355647873810472
sS'qcd_others_scale'
p243
F1
sS'z_scale'
p244
F304.17638460559141
ssS'SS'
p245
(dp246
S'qcd_z_scale'
p247
F1
sS'qcd_data_scale'
p248
F1
sS'qcd_scale_error'
p249
F0.0349770662438805
sS'z_scale_error'
p250
F13.313559280514919
sS'qcd_scale'
p251
F0.67970022427880739
sS'qcd_others_scale'
p252
F1
sS'z_scale'
p253
F304.87421832750124
ssS'nOS_NONISOL'
p254
(dp255
S'qcd_z_scale'
p256
F1
sS'qcd_data_scale'
p257
F1
sS'qcd_scale_error'
p258
F0.018560967938298478
sS'z_scale_error'
p259
F13.931230238390182
sS'qcd_scale'
p260
F0.35975391927122641
sS'qcd_others_scale'
p261
F1
sS'z_scale'
p262
F292.51218079085783
ssS'SS_NONISOL'
p263
(dp264
S'qcd_z_scale'
p265
F1
sS'qcd_data_scale'
p266
F1
sS'qcd_scale_error'
p267
F0.065002886240935462
sS'z_scale_error'
p268
F13.881683877070213
sS'qcd_scale'
p269
F1.268923903070063
sS'qcd_others_scale'
p270
F1
sS'z_scale'
p271
F291.47816332615696
ssS'nOS_ISOL'
p272
(dp273
S'qcd_z_scale'
p274
F1
sS'qcd_data_scale'
p275
F1
sS'qcd_scale_error'
p276
F0.034301871279894362
sS'z_scale_error'
p277
F13.58765254927253
sS'qcd_scale'
p278
F0.64971791197900641
sS'qcd_others_scale'
p279
F1
sS'z_scale'
p280
F306.17743089988448
ssS'SS_ISOL'
p281
(dp282
S'qcd_z_scale'
p283
F1
sS'qcd_data_scale'
p284
F1
sS'qcd_scale_error'
p285
F0.092701755399897307
sS'z_scale_error'
p286
F14.766721314992584
sS'qcd_scale'
p287
F1.470904024535747
sS'qcd_others_scale'
p288
F1
sS'z_scale'
p289
F319.76230244285455
ssS'NONISOL'
p290
(dp291
S'qcd_z_scale'
p292
F1
sS'qcd_data_scale'
p293
F1
sS'qcd_scale_error'
p294
F0.013312636565311229
sS'z_scale_error'
p295
F13.715466680636073
sS'qcd_scale'
p296
F0.26025150743240333
sS'qcd_others_scale'
p297
F1
sS'z_scale'
p298
F294.570669380406
ssS'nOS'
p299
(dp300
S'qcd_z_scale'
p301
F1
sS'qcd_data_scale'
p302
F1
sS'qcd_scale_error'
p303
F0.012062624670689791
sS'z_scale_error'
p304
F13.837000170533484
sS'qcd_scale'
p305
F0.23193975770317307
sS'qcd_others_scale'
p306
F1
sS'z_scale'
p307
F296.80602940072873
ssssss.