(dp1
F12
(dp2
S'VBF'
p3
(dp4
I00
(dp5
S'TRACK'
p6
(dp7
S'SS_TRK'
p8
(dp9
S'qcd_z_scale'
p10
F1
sS'qcd_data_scale'
p11
F1
sS'qcd_scale_error'
p12
F0.23114045919185039
sS'z_scale_error'
p13
F0.17735543679764812
sS'qcd_scale'
p14
F1.5788731444166304
sS'qcd_others_scale'
p15
F1
sS'z_scale'
p16
F1.1363243970214021
ssS'nOS'
p17
(dp18
g10
F1
sg11
F1
sg12
F0.039133877081882526
sg13
F0.17735543679764812
sg14
F0.267315500616018
sg15
F1
sg16
F1.1363243970214021
ssssI01
(dp19
S'TRACK'
p20
(dp21
S'SS_TRK'
p22
(dp23
g10
F1
sg11
F1
sg12
F0.23114045919185039
sg13
F48.205902877183597
sg14
F1.5788731444166304
sg15
F1
sg16
F308.85742500403751
ssS'nOS'
p24
(dp25
g10
F1
sg11
F1
sg12
F0.039133877081882526
sg13
F48.205902877183597
sg14
F0.267315500616018
sg15
F1
sg16
F308.85742500403751
sssssS'CUT_PRESELECTION'
p26
(dp27
I00
(dp28
S'TRACK'
p29
(dp30
S'SS_TRK'
p31
(dp32
S'qcd_z_scale'
p33
F1
sS'qcd_data_scale'
p34
F1
sS'qcd_scale_error'
p35
F0.029028488625265737
sS'z_scale_error'
p36
F0.014069525622470295
sS'qcd_scale'
p37
F1.6892326005319465
sS'qcd_others_scale'
p38
F1
sS'z_scale'
p39
F0.81873712621780625
ssS'nOS'
p40
(dp41
g33
F1
sg34
F1
sg35
F0.0049080725316716801
sg36
F0.014069525622470295
sg37
F0.28561170487735887
sg38
F1
sg39
F0.81873712621780625
ssssI01
(dp42
S'TRACK'
p43
(dp44
S'SS_TRK'
p45
(dp46
g33
F1
sg34
F1
sg35
F0.029028488625265737
sg36
F4.5222530354927635
sg37
F1.6892326005319465
sg38
F1
sg39
F263.16000650340425
ssS'nOS'
p47
(dp48
g33
F1
sg34
F1
sg35
F0.0049080725316716801
sg36
F4.5222530354927635
sg37
F0.28561170487735887
sg38
F1
sg39
F263.16000650340425
sssssS'BOOSTED'
p49
(dp50
I00
(dp51
S'TRACK'
p52
(dp53
g8
(dp54
g10
F1
sg11
F1
sg12
F0.46195695594672548
sg13
F0.10775120928281018
sg14
F3.0774900301213171
sg15
F1
sg16
F0.71885823201903309
ssg17
(dp55
g10
F1
sg11
F1
sg12
F0.07888075116523495
sg13
F0.10775120928281018
sg14
F0.52549208785479651
sg15
F1
sg16
F0.71885823201903309
ssssI01
(dp56
S'TRACK'
p57
(dp58
g22
(dp59
g10
F1
sg11
F1
sg12
F0.46195695594672548
sg13
F37.18921149352385
sg14
F3.0774900301213171
sg15
F1
sg16
F248.10645748067131
ssg24
(dp60
g10
F1
sg11
F1
sg12
F0.07888075116523495
sg13
F37.18921149352385
sg14
F0.52549208785479651
sg15
F1
sg16
F248.10645748067131
sssssS'0J_NONBOOSTED'
p61
(dp62
I00
(dp63
S'TRACK'
p64
(dp65
S'SS_TRK'
p66
(dp67
S'qcd_z_scale'
p68
F1
sS'qcd_data_scale'
p69
F1
sS'qcd_scale_error'
p70
F0.029355762443992225
sS'z_scale_error'
p71
F0.019144783904423521
sS'qcd_scale'
p72
F1.4330567030615973
sS'qcd_others_scale'
p73
F1
sS'z_scale'
p74
F0.91273998677509227
ssS'SS'
p75
(dp76
g68
F1
sg69
F1
sg70
F0.029355762443992225
sg71
F0.019144783904423521
sg72
F1.3995550097962326
sg73
F1
sg74
F0.91273998677509227
ssS'nOS'
p77
(dp78
g68
F1
sg69
F1
sg70
F0.0055063901896678135
sg71
F0.019144783904423521
sg72
F0.26880478359338267
sg73
F1
sg74
F0.91273998677509227
ssssI01
(dp79
S'TRACK'
p80
(dp81
g22
(dp82
g68
F1
sg69
F1
sg70
F0.029355762443992225
sg71
F5.8583963336253673
sg72
F1.4330567030615973
sg73
F1
sg74
F279.30284398984332
ssg75
(dp83
g68
F1
sg69
F1
sg70
F0.029355762443992225
sg71
F5.727665868244431
sg72
F1.3995550097962326
sg73
F1
sg74
F273.07018428270885
ssg24
(dp84
g68
F1
sg69
F1
sg70
F0.0055063901896678135
sg71
F5.8583963336253673
sg72
F0.26880478359338267
sg73
F1
sg74
F279.30284398984332
sssssS'PRESELECTION'
p85
(dp86
I00
(dp87
S'TRACK'
p88
(dp89
S'SS_TRK'
p90
(dp91
S'qcd_z_scale'
p92
F1
sS'qcd_data_scale'
p93
F1
sS'qcd_scale_error'
p94
F0.021971449474114769
sS'z_scale_error'
p95
F0.014153830730092758
sS'qcd_scale'
p96
F1.5187199441599217
sS'qcd_others_scale'
p97
F1
sS'z_scale'
p98
F0.94095613337807471
ssS'SS'
p99
(dp100
g92
F1
sg93
F1
sg94
F0.021971449474114769
sg95
F0.014153830730092758
sg96
F1.4606766561026461
sg97
F1
sg98
F0.9409561333780746
ssS'nOS'
p101
(dp102
g92
F1
sg93
F1
sg94
F0.0038108532541973601
sg95
F0.014153830730092758
sg96
F0.26341543138675672
sg97
F1
sg98
F0.94095613337807471
ssssI01
(dp103
S'TRACK'
p104
(dp105
S'SS_TRK'
p106
(dp107
g92
F1
sg93
F1
sg94
F0.021971449474114769
sg95
F4.3021258669322986
sg96
F1.5187199441599217
sg97
F1
sg98
F286.00820500471559
ssg99
(dp108
g92
F1
sg93
F1
sg94
F0.021971449474114769
sg95
F4.2194739219285431
sg96
F1.4606766561026461
sg97
F1
sg98
F280.51344842114571
ssS'nOS'
p109
(dp110
g92
F1
sg93
F1
sg94
F0.0038108532541973601
sg95
F4.3021258669322986
sg96
F0.26341543138675672
sg97
F1
sg98
F286.00820500471559
sssssS'1J_NONBOOSTED'
p111
(dp112
I00
(dp113
S'TRACK'
p114
(dp115
g8
(dp116
g10
F1
sg11
F1
sg12
F0.045045075332381619
sg13
F0.0287138728879037
sg14
F1.5311390799782194
sg15
F1
sg16
F0.91208532845902601
ssg17
(dp117
g10
F1
sg11
F1
sg12
F0.0076410655094721197
sg13
F0.0287138728879037
sg14
F0.25972948047921202
sg15
F1
sg16
F0.91208532845902601
ssssI01
(dp118
S'TRACK'
p119
(dp120
g22
(dp121
g10
F1
sg11
F1
sg12
F0.045045075332381619
sg13
F9.1878602765392081
sg14
F1.5311390799782194
sg15
F1
sg16
F291.84891187887069
ssg24
(dp122
g10
F1
sg11
F1
sg12
F0.0076410655094721197
sg13
F9.1878602765392081
sg14
F0.25972948047921202
sg15
F1
sg16
F291.84891187887069
sssssS'PRESELECTION_DETA_CONTROL'
p123
(dp124
I00
(dp125
S'TRACK'
p126
(dp127
S'SS_TRK'
p128
(dp129
S'qcd_z_scale'
p130
F1
sS'qcd_data_scale'
p131
F1
sS'qcd_scale_error'
p132
F0.038053451919162505
sS'z_scale_error'
p133
F0.020150382138893867
sS'qcd_scale'
p134
F1.3446176259958396
sS'qcd_others_scale'
p135
F1
sS'z_scale'
p136
F0.69759677264013042
ssS'SS'
p137
(dp138
g130
F1
sg131
F1
sg132
F0.038053451919162505
sg133
F0.020150382138893867
sg134
F1.3173926461367522
sg135
F1
sg136
F0.69759677264013042
ssS'nOS'
p139
(dp140
g130
F1
sg131
F1
sg132
F0.0068318757221160955
sg133
F0.020150382138893867
sg134
F0.24140413159060736
sg135
F1
sg136
F0.69759677264013042
ssssI01
(dp141
S'TRACK'
p142
(dp143
g128
(dp144
g130
F1
sg131
F1
sg132
F0.038053451919162505
sg133
F7.902397087263985
sg134
F1.3446176259958396
sg135
F1
sg136
F273.57727839590916
ssg137
(dp145
g130
F1
sg131
F1
sg132
F0.038053451919162505
sg133
F7.6168594817023507
sg134
F1.3173926461367522
sg135
F1
sg136
F263.69210050031415
ssg139
(dp146
g130
F1
sg131
F1
sg132
F0.0068318757221160955
sg133
F7.902397087263985
sg134
F0.24140413159060736
sg135
F1
sg136
F273.57727839590916
ssssss.