(dp1
F11
(dp2
S'PRESELECTION'
p3
(dp4
I00
(dp5
S'DETA_TAU1_TAU2'
p6
(dp7
S'OS_NONISOL'
p8
(dp9
S'qcd_z_scale'
p10
F1
sS'qcd_data_scale'
p11
F1
sS'qcd_scale_error'
p12
F0.61112313500658977
sS'z_scale_error'
p13
F0.29175853572507782
sS'qcd_scale'
p14
F1.5024993258830355
sS'qcd_others_scale'
p15
F1
sS'z_scale'
p16
F1.7078462853806247
ssS'OS_DOUBLE_NONISOL'
p17
(dp18
S'qcd_z_scale'
p19
F1
sS'qcd_data_scale'
p20
F1
sS'qcd_scale_error'
p21
F7.5228766195119094
sS'z_scale_error'
p22
F0.1897914901545372
sS'qcd_scale'
p23
F10.892828598721831
sS'qcd_others_scale'
p24
F1
sS'z_scale'
p25
F2.1944807735723839
ssS'SS_DOUBLE_NONISOL'
p26
(dp27
S'qcd_z_scale'
p28
F1
sS'qcd_data_scale'
p29
F1
sS'qcd_scale_error'
p30
F4.8913949890637216
sS'z_scale_error'
p31
F0.1506797017630819
sS'qcd_scale'
p32
F7.5497763844437129
sS'qcd_others_scale'
p33
F1
sS'z_scale'
p34
F2.1923959247584217
ssS'SS'
p35
(dp36
S'qcd_z_scale'
p37
F1
sS'qcd_data_scale'
p38
F1
sS'qcd_scale_error'
p39
F0.55027155120954607
sS'z_scale_error'
p40
F0.43427545376564103
sS'qcd_scale'
p41
F0.89477332760730277
sS'qcd_others_scale'
p42
F1
sS'z_scale'
p43
F1.7556650340635285
ssS'nOS_NONISOL'
p44
(dp45
S'qcd_z_scale'
p46
F1
sS'qcd_data_scale'
p47
F1
sS'qcd_scale_error'
p48
F0.1886875472145654
sS'z_scale_error'
p49
F0.3810274434767868
sS'qcd_scale'
p50
F0.61874358493348747
sS'qcd_others_scale'
p51
F1
sS'z_scale'
p52
F1.2084687907179161
ssS'SS_NONISOL'
p53
(dp54
S'qcd_z_scale'
p55
F1
sS'qcd_data_scale'
p56
F1
sS'qcd_scale_error'
p57
F1.1055243583470262
sS'z_scale_error'
p58
F0.29560089808995765
sS'qcd_scale'
p59
F1.6497521985220847
sS'qcd_others_scale'
p60
F1
sS'z_scale'
p61
F1.8532406743988925
ssS'NONISOL'
p62
(dp63
S'qcd_z_scale'
p64
F1
sS'qcd_data_scale'
p65
F1
sS'qcd_scale_error'
p66
F0.14663593018822091
sS'z_scale_error'
p67
F0.37561446558355743
sS'qcd_scale'
p68
F0.52529124962466966
sS'qcd_others_scale'
p69
F1
sS'z_scale'
p70
F1.1111272910008327
ssS'DOUBLE_NONISOL'
p71
(dp72
S'qcd_z_scale'
p73
F1
sS'qcd_data_scale'
p74
F1
sS'qcd_scale_error'
p75
F1.2974464101702423
sS'z_scale_error'
p76
F0.21128900203588777
sS'qcd_scale'
p77
F2.8789701828573242
sS'qcd_others_scale'
p78
F1
sS'z_scale'
p79
F1.9494226414876736
ssS'nOS_DOUBLE_NONISOL'
p80
(dp81
S'qcd_z_scale'
p82
F1
sS'qcd_data_scale'
p83
F1
sS'qcd_scale_error'
p84
F1.0649831449997382
sS'z_scale_error'
p85
F0.17829510759743472
sS'qcd_scale'
p86
F2.5920977141741437
sS'qcd_others_scale'
p87
F1
sS'z_scale'
p88
F2.0790477028857546
ssS'nOS'
p89
(dp90
S'qcd_z_scale'
p91
F1
sS'qcd_data_scale'
p92
F1
sS'qcd_scale_error'
p93
F0.054590714348300193
sS'z_scale_error'
p94
F0.52597135973390108
sS'qcd_scale'
p95
F0.22059607806735471
sS'qcd_others_scale'
p96
F1
sS'z_scale'
p97
F0.83314465062104215
ssssI01
(dp98
S'DETA_TAU1_TAU2'
p99
(dp100
S'OS_NONISOL'
p101
(dp102
S'qcd_z_scale'
p103
F1
sS'qcd_data_scale'
p104
F1
sS'qcd_scale_error'
p105
F0.54497315773673782
sS'z_scale_error'
p106
F67.189441901212433
sS'qcd_scale'
p107
F1.5509105600872821
sS'qcd_others_scale'
p108
F1
sS'z_scale'
p109
F485.67262780638248
ssS'OS_DOUBLE_NONISOL'
p110
(dp111
S'qcd_z_scale'
p112
F1
sS'qcd_data_scale'
p113
F1
sS'qcd_scale_error'
p114
F11.338298898350766
sS'z_scale_error'
p115
F72.941504423258209
sS'qcd_scale'
p116
F15.665342619687303
sS'qcd_others_scale'
p117
F1
sS'z_scale'
p118
F585.26903063958412
ssS'SS_DOUBLE_NONISOL'
p119
(dp120
S'qcd_z_scale'
p121
F1
sS'qcd_data_scale'
p122
F1
sS'qcd_scale_error'
p123
F3.7863079453829522
sS'z_scale_error'
p124
F39.594757164511641
sS'qcd_scale'
p125
F1.2907570738697234
sS'qcd_others_scale'
p126
F1
sS'z_scale'
p127
F678.03006009080343
ssS'SS'
p128
(dp129
S'qcd_z_scale'
p130
F1
sS'qcd_data_scale'
p131
F1
sS'qcd_scale_error'
p132
F0.50776538459619891
sS'z_scale_error'
p133
F111.21843923951081
sS'qcd_scale'
p134
F1.0834141160492241
sS'qcd_others_scale'
p135
F1
sS'z_scale'
p136
F447.47062657192453
ssS'nOS_NONISOL'
p137
(dp138
S'qcd_z_scale'
p139
F1
sS'qcd_data_scale'
p140
F1
sS'qcd_scale_error'
p141
F0.16710426737309017
sS'z_scale_error'
p142
F94.252979461135041
sS'qcd_scale'
p143
F0.66280507163514302
sS'qcd_others_scale'
p144
F1
sS'z_scale'
p145
F315.39551985002703
ssS'SS_NONISOL'
p146
(dp147
S'qcd_z_scale'
p148
F1
sS'qcd_data_scale'
p149
F1
sS'qcd_scale_error'
p150
F0.88895263619643405
sS'z_scale_error'
p151
F81.378593000155348
sS'qcd_scale'
p152
F1.859606750714329
sS'qcd_others_scale'
p153
F1
sS'z_scale'
p154
F501.95583563945149
ssS'NONISOL'
p155
(dp156
S'qcd_z_scale'
p157
F1
sS'qcd_data_scale'
p158
F1
sS'qcd_scale_error'
p159
F0.1286595151834958
sS'z_scale_error'
p160
F91.450083915479851
sS'qcd_scale'
p161
F0.55211503711397691
sS'qcd_others_scale'
p162
F1
sS'z_scale'
p163
F296.20875285172684
ssS'DOUBLE_NONISOL'
p164
(dp165
S'qcd_z_scale'
p166
F1
sS'qcd_data_scale'
p167
F1
sS'qcd_scale_error'
p168
F1.4992306523097332
sS'z_scale_error'
p169
F63.960491715129017
sS'qcd_scale'
p170
F3.1109825379308238
sS'qcd_others_scale'
p171
F1
sS'z_scale'
p172
F544.96897148996425
ssS'nOS_DOUBLE_NONISOL'
p173
(dp174
S'qcd_z_scale'
p175
F1
sS'qcd_data_scale'
p176
F1
sS'qcd_scale_error'
p177
F1.1422537072194212
sS'z_scale_error'
p178
F47.604924105348942
sS'qcd_scale'
p179
F1.5952585250279763
sS'qcd_others_scale'
p180
F1
sS'z_scale'
p181
F627.34248564863697
ssS'nOS'
p182
(dp183
S'qcd_z_scale'
p184
F1
sS'qcd_data_scale'
p185
F1
sS'qcd_scale_error'
p186
F0.069072597273663841
sS'z_scale_error'
p187
F122.91756190351711
sS'qcd_scale'
p188
F0.235547090920038
sS'qcd_others_scale'
p189
F1
sS'z_scale'
p190
F269.42325914873999
ssssssF12
(dp191
S'PRESELECTION'
p192
(dp193
I00
(dp194
S'DETA_TAU1_TAU2'
p195
(dp196
S'OS_NONISOL'
p197
(dp198
S'qcd_z_scale'
p199
F1
sS'qcd_data_scale'
p200
F1
sS'qcd_scale_error'
p201
F0.086352580874036536
sS'z_scale_error'
p202
F0.13127357139297571
sS'qcd_scale'
p203
F0.99814244578493216
sS'qcd_others_scale'
p204
F1
sS'z_scale'
p205
F1.1705836531713758
ssS'OS_DOUBLE_NONISOL'
p206
(dp207
S'qcd_z_scale'
p208
F1
sS'qcd_data_scale'
p209
F1
sS'qcd_scale_error'
p210
F0.43136547741397557
sS'z_scale_error'
p211
F0.11189939659877141
sS'qcd_scale'
p212
F4.7088080660714864
sS'qcd_others_scale'
p213
F1
sS'z_scale'
p214
F1.4700651174471491
ssS'SS_DOUBLE_NONISOL'
p215
(dp216
S'qcd_z_scale'
p217
F1
sS'qcd_data_scale'
p218
F1
sS'qcd_scale_error'
p219
F0.61073135389555833
sS'z_scale_error'
p220
F0.13085936475008525
sS'qcd_scale'
p221
F6.288510905050841
sS'qcd_others_scale'
p222
F1
sS'z_scale'
p223
F1.3420178927636424
ssS'SS'
p224
(dp225
S'qcd_z_scale'
p226
F1
sS'qcd_data_scale'
p227
F1
sS'qcd_scale_error'
p228
F0.19167741450898299
sS'z_scale_error'
p229
F0.18247359484006076
sS'qcd_scale'
p230
F2.1785910863878164
sS'qcd_others_scale'
p231
F1
sS'z_scale'
p232
F0.60798922054047
ssS'nOS_NONISOL'
p233
(dp234
S'qcd_z_scale'
p235
F1
sS'qcd_data_scale'
p236
F1
sS'qcd_scale_error'
p237
F0.043000518991922448
sS'z_scale_error'
p238
F0.1836172111302988
sS'qcd_scale'
p239
F0.49889900125925651
sS'qcd_others_scale'
p240
F1
sS'z_scale'
p241
F0.55054755700903724
ssS'SS_NONISOL'
p242
(dp243
S'qcd_z_scale'
p244
F1
sS'qcd_data_scale'
p245
F1
sS'qcd_scale_error'
p246
F0.1641358894217628
sS'z_scale_error'
p247
F0.18368209686910819
sS'qcd_scale'
p248
F1.9096682172720143
sS'qcd_others_scale'
p249
F1
sS'z_scale'
p250
F0.54351223663175774
ssS'NONISOL'
p251
(dp252
S'qcd_z_scale'
p253
F1
sS'qcd_data_scale'
p254
F1
sS'qcd_scale_error'
p255
F0.027776392691213063
sS'z_scale_error'
p256
F0.16432008570414611
sS'qcd_scale'
p257
F0.3305218532497724
sS'qcd_others_scale'
p258
F1
sS'z_scale'
p259
F0.72770905461006441
ssS'DOUBLE_NONISOL'
p260
(dp261
S'qcd_z_scale'
p262
F1
sS'qcd_data_scale'
p263
F1
sS'qcd_scale_error'
p264
F0.11049817094257224
sS'z_scale_error'
p265
F0.14364970637785121
sS'qcd_scale'
p266
F1.315980512380152
sS'qcd_others_scale'
p267
F1
sS'z_scale'
p268
F0.97404096337799861
ssS'nOS_DOUBLE_NONISOL'
p269
(dp270
S'qcd_z_scale'
p271
F1
sS'qcd_data_scale'
p272
F1
sS'qcd_scale_error'
p273
F0.1483563555597848
sS'z_scale_error'
p274
F0.15271128517498159
sS'qcd_scale'
p275
F1.7851018550427644
sS'qcd_others_scale'
p276
F1
sS'z_scale'
p277
F0.84596713135577561
ssS'OS'
p278
(dp279
S'qcd_z_scale'
p280
F1
sS'qcd_data_scale'
p281
F1
sS'qcd_scale_error'
p282
F0.051122521550678118
sS'z_scale_error'
p283
F0.042180743082397339
sS'qcd_scale'
p284
F1.0000128224346507
sS'qcd_others_scale'
p285
F1
sS'z_scale'
p286
F0.87715311239825233
ssS'nOS'
p287
(dp288
S'qcd_z_scale'
p289
F1
sS'qcd_data_scale'
p290
F1
sS'qcd_scale_error'
p291
F0.1170186001120853
sS'z_scale_error'
p292
F0.3040723131913573
sS'qcd_scale'
p293
F0.93307139878454715
sS'qcd_others_scale'
p294
F1
sS'z_scale'
p295
F0.24310644572420487
ssssI01
(dp296
S'DETA_TAU1_TAU2'
p297
(dp298
S'OS_NONISOL'
p299
(dp300
S'qcd_z_scale'
p301
F1
sS'qcd_data_scale'
p302
F1
sS'qcd_scale_error'
p303
F0.093271751023150593
sS'z_scale_error'
p304
F39.158336240647678
sS'qcd_scale'
p305
F0.82945224945379581
sS'qcd_others_scale'
p306
F1
sS'z_scale'
p307
F465.86385015232946
ssS'OS_DOUBLE_NONISOL'
p308
(dp309
S'qcd_z_scale'
p310
F1
sS'qcd_data_scale'
p311
F1
sS'qcd_scale_error'
p312
F0.46602508841021512
sS'z_scale_error'
p313
F35.123744252652266
sS'qcd_scale'
p314
F4.0782214306552182
sS'qcd_others_scale'
p315
F1
sS'z_scale'
p316
F507.50300323182057
ssS'SS_DOUBLE_NONISOL'
p317
(dp318
S'qcd_z_scale'
p319
F1
sS'qcd_data_scale'
p320
F1
sS'qcd_scale_error'
p321
F0.71356635747077335
sS'z_scale_error'
p322
F46.155194274451574
sS'qcd_scale'
p323
F5.0080642307671788
sS'qcd_others_scale'
p324
F1
sS'z_scale'
p325
F490.12850820151721
ssS'SS'
p326
(dp327
S'qcd_z_scale'
p328
F1
sS'qcd_data_scale'
p329
F1
sS'qcd_scale_error'
p330
F0.21970148785026375
sS'z_scale_error'
p331
F63.531939592040246
sS'qcd_scale'
p332
F2.0430861334250934
sS'qcd_others_scale'
p333
F1
sS'z_scale'
p334
F221.46905528766285
ssS'nOS_NONISOL'
p335
(dp336
S'qcd_z_scale'
p337
F1
sS'qcd_data_scale'
p338
F1
sS'qcd_scale_error'
p339
F0.048609191822288116
sS'z_scale_error'
p340
F62.757954813372031
sS'qcd_scale'
p341
F0.4726984521481894
sS'qcd_others_scale'
p342
F1
sS'z_scale'
p343
F201.73127888521313
ssS'SS_NONISOL'
p344
(dp345
S'qcd_z_scale'
p346
F1
sS'qcd_data_scale'
p347
F1
sS'qcd_scale_error'
p348
F0.18840355501693135
sS'z_scale_error'
p349
F63.918465288013792
sS'qcd_scale'
p350
F1.8236082815969363
sS'qcd_others_scale'
p351
F1
sS'z_scale'
p352
F193.26463274273695
ssS'NONISOL'
p353
(dp354
S'qcd_z_scale'
p355
F1
sS'qcd_data_scale'
p356
F1
sS'qcd_scale_error'
p357
F0.031205367937398473
sS'z_scale_error'
p358
F55.106620773286679
sS'qcd_scale'
p359
F0.30254986938648487
sS'qcd_others_scale'
p360
F1
sS'z_scale'
p361
F278.3455794477897
ssS'DOUBLE_NONISOL'
p362
(dp363
S'qcd_z_scale'
p364
F1
sS'qcd_data_scale'
p365
F1
sS'qcd_scale_error'
p366
F0.12463258716104836
sS'z_scale_error'
p367
F48.698404993384827
sS'qcd_scale'
p368
F1.1991554960399293
sS'qcd_others_scale'
p369
F1
sS'z_scale'
p370
F344.43595579949636
ssS'nOS_DOUBLE_NONISOL'
p371
(dp372
S'qcd_z_scale'
p373
F1
sS'qcd_data_scale'
p374
F1
sS'qcd_scale_error'
p375
F0.16918252912547019
sS'z_scale_error'
p376
F52.662730699674896
sS'qcd_scale'
p377
F1.6528441423738365
sS'qcd_others_scale'
p378
F1
sS'z_scale'
p379
F298.15022718235156
ssS'OS'
p380
(dp381
S'qcd_z_scale'
p382
F1
sS'qcd_data_scale'
p383
F1
sS'qcd_scale_error'
p384
F0.0499659372252537
sS'z_scale_error'
p385
F13.25154593350697
sS'qcd_scale'
p386
F0.99998889450441042
sS'qcd_others_scale'
p387
F1
sS'z_scale'
p388
F281.89070135225347
ssS'nOS'
p389
(dp390
S'qcd_z_scale'
p391
F1
sS'qcd_data_scale'
p392
F1
sS'qcd_scale_error'
p393
F0.15249048475214103
sS'z_scale_error'
p394
F119.80996012048183
sS'qcd_scale'
p395
F0.91830518895500468
sS'qcd_others_scale'
p396
F1
sS'z_scale'
p397
F85.753152753072953
ssssss.