(dp1
F12
(dp2
S'VBF'
p3
(dp4
I01
(dp5
S'TRACK'
p6
(dp7
S'SS_TRK'
p8
(F1.1474948323416139
F0.1580350436705743
F367.46709530334209
F37.359755909725145
tp9
sS'nOS'
p10
(F0.19604261783818286
F0.026999340474700796
F367.46709530334209
F37.359755909725145
tp11
ssssS'CUT_PRESELECTION'
p12
(dp13
I01
(dp14
S'TRACK'
p15
(dp16
S'SS_TRK'
p17
(F1.2149092177095819
F0.051305447492540734
F350.47671009648059
F16.669725266476952
tp18
sS'nOS'
p19
(F0.21129639567606734
F0.008923017436775255
F350.47671009648059
F16.669725266476952
tp20
ssssS'BOOSTED'
p21
(dp22
I01
(dp23
S'TRACK'
p24
(dp25
g8
(F1.1252326774048638
F0.36467837464245706
F322.53805436761087
F20.574968675834821
tp26
sS'nOS'
p27
(F0.21364035561429442
F0.069239028698617366
F322.53805436761087
F20.574968675834821
tp28
ssssS'0J_NONBOOSTED'
p29
(dp30
I01
(dp31
S'TRACK'
p32
(dp33
g8
(F1.2064605500288574
F0.041602296445588882
F439.66112828888106
F21.399882422385389
tp34
sg27
(F0.23276290099398075
F0.008026347159428647
F439.66112828888106
F21.399882422385389
tp35
ssssS'PRESELECTION'
p36
(dp37
I01
(dp38
S'TRACK'
p39
(dp40
S'SS_TRK'
p41
(F1.1788842246350173
F0.041050956789979831
F422.63917256607385
F17.244679017497635
tp42
sS'nOS'
p43
(F0.21950995785631905
F0.0076437478817904135
F422.63917256607385
F17.244679017497635
tp44
ssssS'1J_NONBOOSTED'
p45
(dp46
I01
(dp47
S'TRACK'
p48
(dp49
g8
(F1.1161250856914207
F0.047843427471868427
F431.30355176418044
F20.645723552315594
tp50
sg27
(F0.19263205601978145
F0.0082572983253306632
F431.30355176418044
F20.645723552315594
tp51
sssss.