(dp1
F12
(dp2
S'0J'
p3
(dp4
I00
(dp5
S'TRACK'
p6
(F1.2402238325586601
F0.053152431278737033
F1.1625306477655246
F0.064569148502328089
tp7
sssS'1J'
p8
(dp9
I00
(dp10
S'TRACK'
p11
(F1.2503534475864555
F0.086860238927443101
F1.0324566883186943
F0.082707620243220537
tp12
sssS'2J'
p13
(dp14
I00
(dp15
S'TRACK'
p16
(F1.1529183946430639
F0.1149224851625521
F1.0422115755340193
F0.10992184041665193
tp17
ssss.