(dp1
F11
(dp2
S'PRESELECTION'
p3
(dp4
I01
(dp5
S'TRACK'
p6
(dp7
S'nOS'
p8
(dp9
S'qcd_z_scale'
p10
F1
sS'qcd_data_scale'
p11
F1
sS'qcd_scale_error'
p12
F0.0088046740166470867
sS'z_scale_error'
p13
F86.16300933991387
sS'qcd_scale'
p14
F0.14687562392402065
sS'qcd_others_scale'
p15
F1
sS'z_scale'
p16
F270.07807118900206
ssssssF12
(dp17
S'VBF'
p18
(dp19
I00
(dp20
S'TRACK'
p21
(dp22
S'SS_TRK'
p23
(dp24
S'qcd_z_scale'
p25
F1
sS'qcd_data_scale'
p26
F1
sS'qcd_scale_error'
p27
F0.23114045919185039
sS'z_scale_error'
p28
F0.17735543679764812
sS'qcd_scale'
p29
F1.5788731444166304
sS'qcd_others_scale'
p30
F1
sS'z_scale'
p31
F1.1363243970214021
ssS'nOS'
p32
(dp33
g25
F1
sg26
F1
sg27
F0.039133877081882526
sg28
F0.17735543679764812
sg29
F0.267315500616018
sg30
F1
sg31
F1.1363243970214021
ssssI01
(dp34
S'TRACK'
p35
(dp36
S'SS_TRK'
p37
(dp38
g25
F1
sg26
F1
sg27
F0.23114045919185039
sg28
F48.205902877183597
sg29
F1.5788731444166304
sg30
F1
sg31
F308.85742500403751
ssS'nOS'
p39
(dp40
g25
F1
sg26
F1
sg27
F0.039133877081882526
sg28
F48.205902877183597
sg29
F0.267315500616018
sg30
F1
sg31
F308.85742500403751
sssssS'CUT_PRESELECTION'
p41
(dp42
I00
(dp43
S'TRACK'
p44
(dp45
S'SS_TRK'
p46
(dp47
S'qcd_z_scale'
p48
F1
sS'qcd_data_scale'
p49
F1
sS'qcd_scale_error'
p50
F0.029028488625265737
sS'z_scale_error'
p51
F0.014069525622470295
sS'qcd_scale'
p52
F1.6892326005319465
sS'qcd_others_scale'
p53
F1
sS'z_scale'
p54
F0.81873712621780625
ssS'nOS'
p55
(dp56
g48
F1
sg49
F1
sg50
F0.0049080725316716801
sg51
F0.014069525622470295
sg52
F0.28561170487735887
sg53
F1
sg54
F0.81873712621780625
ssssI01
(dp57
S'TRACK'
p58
(dp59
S'SS_TRK'
p60
(dp61
g48
F1
sg49
F1
sg50
F0.029028488625265737
sg51
F4.5222530354927635
sg52
F1.6892326005319465
sg53
F1
sg54
F263.16000650340425
ssS'nOS'
p62
(dp63
g48
F1
sg49
F1
sg50
F0.0049080725316716801
sg51
F4.5222530354927635
sg52
F0.28561170487735887
sg53
F1
sg54
F263.16000650340425
sssssS'BOOSTED'
p64
(dp65
I00
(dp66
S'TRACK'
p67
(dp68
g23
(dp69
g25
F1
sg26
F1
sg27
F0.46195695594672548
sg28
F0.10775120928281018
sg29
F3.0774900301213171
sg30
F1
sg31
F0.71885823201903309
ssg32
(dp70
g25
F1
sg26
F1
sg27
F0.07888075116523495
sg28
F0.10775120928281018
sg29
F0.52549208785479651
sg30
F1
sg31
F0.71885823201903309
ssssI01
(dp71
S'TRACK'
p72
(dp73
g37
(dp74
g25
F1
sg26
F1
sg27
F0.46195695594672548
sg28
F37.18921149352385
sg29
F3.0774900301213171
sg30
F1
sg31
F248.10645748067131
ssg39
(dp75
g25
F1
sg26
F1
sg27
F0.07888075116523495
sg28
F37.18921149352385
sg29
F0.52549208785479651
sg30
F1
sg31
F248.10645748067131
sssssS'0J_NONBOOSTED'
p76
(dp77
I00
(dp78
S'TRACK'
p79
(dp80
S'SS_TRK'
p81
(dp82
S'qcd_z_scale'
p83
F1
sS'qcd_data_scale'
p84
F1
sS'qcd_scale_error'
p85
F0.029355762443992225
sS'z_scale_error'
p86
F0.019144783904423521
sS'qcd_scale'
p87
F1.4330567030615973
sS'qcd_others_scale'
p88
F1
sS'z_scale'
p89
F0.91273998677509227
ssS'SS'
p90
(dp91
g83
F1
sg84
F1
sg85
F0.029355762443992225
sg86
F0.019144783904423521
sg87
F1.3995550097962326
sg88
F1
sg89
F0.91273998677509227
ssS'nOS'
p92
(dp93
g83
F1
sg84
F1
sg85
F0.0055063901896678135
sg86
F0.019144783904423521
sg87
F0.26880478359338267
sg88
F1
sg89
F0.91273998677509227
ssssI01
(dp94
S'TRACK'
p95
(dp96
g37
(dp97
g83
F1
sg84
F1
sg85
F0.029355762443992225
sg86
F5.8583963336253673
sg87
F1.4330567030615973
sg88
F1
sg89
F279.30284398984332
ssg90
(dp98
g83
F1
sg84
F1
sg85
F0.029355762443992225
sg86
F5.727665868244431
sg87
F1.3995550097962326
sg88
F1
sg89
F273.07018428270885
ssg39
(dp99
g83
F1
sg84
F1
sg85
F0.0055063901896678135
sg86
F5.8583963336253673
sg87
F0.26880478359338267
sg88
F1
sg89
F279.30284398984332
sssssS'PRESELECTION'
p100
(dp101
I00
(dp102
S'TRACK'
p103
(dp104
S'SS_TRK'
p105
(dp106
S'qcd_z_scale'
p107
F1
sS'qcd_data_scale'
p108
F1
sS'qcd_scale_error'
p109
F0.02197373129765005
sS'z_scale_error'
p110
F0.013988952476527983
sS'qcd_scale'
p111
F1.5197753205937179
sS'qcd_others_scale'
p112
F1
sS'z_scale'
p113
F0.93045168519838506
ssS'SS'
p114
(dp115
g107
F1
sg108
F1
sg109
F0.02197373129765005
sg110
F0.013988952476527983
sg111
F1.4615458412844287
sg112
F1
sg113
F0.93045168519838484
ssS'nOS'
p116
(dp117
S'qcd_z_scale'
p118
F1
sS'qcd_data_scale'
p119
F1
sS'qcd_scale_error'
p120
F0.0099135861994459028
sS'z_scale_error'
p121
F0.069419667902582652
sS'qcd_scale'
p122
F0.28346519340875798
sS'qcd_others_scale'
p123
F1
sS'z_scale'
p124
F0.74859871545047529
ssssI01
(dp125
S'TRACK'
p126
(dp127
S'SS_TRK'
p128
(dp129
g107
F1
sg108
F1
sg109
F0.02197373129765005
sg110
F4.2520004624317558
sg111
F1.5197753205937179
sg112
F1
sg113
F282.81467124662623
ssg114
(dp130
S'qcd_z_scale'
p131
F1
sS'qcd_data_scale'
p132
F1
sS'qcd_scale_error'
p133
F0.029469913915897608
sS'z_scale_error'
p134
F20.337329692020745
sS'qcd_scale'
p135
F0.82370574953558739
sS'qcd_others_scale'
p136
F1
sS'z_scale'
p137
F261.87779869180866
ssS'nOS'
p138
(dp139
S'qcd_z_scale'
p140
F1
sS'qcd_data_scale'
p141
F1
sS'qcd_scale_error'
p142
F0.0099598330536495912
sS'z_scale_error'
p143
F21.172890208561881
sS'qcd_scale'
p144
F0.27937752844571501
sS'qcd_others_scale'
p145
F1
sS'z_scale'
p146
F235.6462757980029
sssssS'1J_NONBOOSTED'
p147
(dp148
I00
(dp149
S'TRACK'
p150
(dp151
g23
(dp152
g25
F1
sg26
F1
sg27
F0.045045075332381619
sg28
F0.0287138728879037
sg29
F1.5311390799782194
sg30
F1
sg31
F0.91208532845902601
ssg32
(dp153
g25
F1
sg26
F1
sg27
F0.0076410655094721197
sg28
F0.0287138728879037
sg29
F0.25972948047921202
sg30
F1
sg31
F0.91208532845902601
ssssI01
(dp154
S'TRACK'
p155
(dp156
g37
(dp157
g25
F1
sg26
F1
sg27
F0.045045075332381619
sg28
F9.1878602765392081
sg29
F1.5311390799782194
sg30
F1
sg31
F291.84891187887069
ssg39
(dp158
g25
F1
sg26
F1
sg27
F0.0076410655094721197
sg28
F9.1878602765392081
sg29
F0.25972948047921202
sg30
F1
sg31
F291.84891187887069
sssssS'PRESELECTION_DETA_CONTROL'
p159
(dp160
I00
(dp161
S'TRACK'
p162
(dp163
S'SS_TRK'
p164
(dp165
S'qcd_z_scale'
p166
F1
sS'qcd_data_scale'
p167
F1
sS'qcd_scale_error'
p168
F0.038053451919162505
sS'z_scale_error'
p169
F0.020150382138893867
sS'qcd_scale'
p170
F1.3446176259958396
sS'qcd_others_scale'
p171
F1
sS'z_scale'
p172
F0.69759677264013042
ssS'SS'
p173
(dp174
g166
F1
sg167
F1
sg168
F0.038053451919162505
sg169
F0.020150382138893867
sg170
F1.3173926461367522
sg171
F1
sg172
F0.69759677264013042
ssS'nOS'
p175
(dp176
g166
F1
sg167
F1
sg168
F0.0068318757221160955
sg169
F0.020150382138893867
sg170
F0.24140413159060736
sg171
F1
sg172
F0.69759677264013042
ssssI01
(dp177
S'TRACK'
p178
(dp179
g164
(dp180
g166
F1
sg167
F1
sg168
F0.038053451919162505
sg169
F7.902397087263985
sg170
F1.3446176259958396
sg171
F1
sg172
F273.57727839590916
ssg173
(dp181
g166
F1
sg167
F1
sg168
F0.038053451919162505
sg169
F7.6168594817023507
sg170
F1.3173926461367522
sg171
F1
sg172
F263.69210050031415
ssg175
(dp182
g166
F1
sg167
F1
sg168
F0.0068318757221160955
sg169
F7.902397087263985
sg170
F0.24140413159060736
sg171
F1
sg172
F273.57727839590916
ssssss.