(dp1
F12
(dp2
S'CUT_PRESELECTION'
p3
(dp4
I01
(dp5
S'TRACK'
p6
(dp7
S'SS_TRK'
p8
(dp9
S'qcd_z_scale'
p10
F1
sS'qcd_data_scale'
p11
F1.1722502246811894
sS'z_scale_error'
p12
F0
sS'qcd_others_scale'
p13
F1
sS'z_scale'
p14
F385.35588296188723
sS'qcd_data_scale_error'
p15
F0
ssS'nOS'
p16
(dp17
g10
F0.053564403431027731
sg11
F0.20014139591225305
sg12
F0
sg13
F0.15540855787207453
sg14
F385.35588296188723
sg15
F0
ssssss.