(dp1
F12
(dp2
S'0J'
p3
(dp4
I00
(dp5
S'TRACK'
p6
(F1.2402248261299389
F0.053175096012769263
F1.1625282753081774
F0.064587017457041984
tp7
sssS'1J'
p8
(dp9
I00
(dp10
S'TRACK'
p11
(F1.25035687665855
F0.086853776392114668
F1.0324551519338134
F0.08270268905414313
tp12
sssS'2J'
p13
(dp14
I00
(dp15
S'TRACK'
p16
(F1.1529217850301796
F0.11493394071221064
F1.0422087477992057
F0.10993047888870966
tp17
ssss.