(dp1
F12
(dp2
S'VBF'
p3
(dp4
I00
(dp5
S'TRACK'
p6
(F1.3062720227772846
F0.1649636155746681
F1.1796252149320545
F0.17654704767250662
tp7
sssS'BOOSTED'
p8
(dp9
I00
(dp10
S'TRACK'
p11
(F1.5845311874325383
F0.35105242169402806
F0.88952873428295542
F0.058232522891313643
tp12
sssS'0J_NONBOOSTED'
p13
(dp14
I00
(dp15
S'TRACK'
p16
(F1.3124962754691449
F0.041766176615897654
F1.0026360507291585
F0.048991694761574334
tp17
sssS'0J'
p18
(dp19
I00
(dp20
S'TRACK'
p21
(F1.2741778505152668
F0.039424566535306127
F1.1421081042771735
F0.050010717666015281
tp22
sssS'1J'
p23
(dp24
I00
(dp25
S'TRACK'
p26
(F1.4700897184599697
F0.10398808837390561
F0.92802120068226235
F0.063154522477993524
tp27
sssS'1J_NONBOOSTED'
p28
(dp29
I00
(dp30
S'TRACK'
p31
(F1.2543042974539698
F0.04741201112122484
F1.1436509778159463
F0.056341456762457387
tp32
sssS'2J'
p33
(dp34
I00
(dp35
S'TRACK'
p36
(F1.1861763311645421
F0.11488184112310373
F1.1295440745762559
F0.072504289942126321
tp37
ssss.