(dp1
F12
(dp2
S'VBF'
p3
(dp4
I00
(dp5
S'TRACK'
p6
(F1.3096692810767172
F0.16839310558648268
F1.1921410843481541
F0.181716098212237
tp7
sssS'BOOSTED'
p8
(dp9
I00
(dp10
S'TRACK'
p11
(F1.4830068948305482
F0.37329305425427228
F0.90545680326507838
F0.06016146237694775
tp12
sssS'0J_NONBOOSTED'
p13
(dp14
I00
(dp15
S'TRACK'
p16
(F1.2931726567609851
F0.042240405359926569
F1.0565190314686286
F0.05500854807023603
tp17
sssS'0J'
p18
(dp19
I00
(dp20
S'TRACK'
p21
(F1.2741778505152668
F0.039424566535306127
F1.1421081042771735
F0.050010717666015281
tp22
sssS'1J'
p23
(dp24
I00
(dp25
S'TRACK'
p26
(F1.4700897184599697
F0.10398808837390561
F0.92802120068226235
F0.063154522477993524
tp27
sssS'1J_NONBOOSTED'
p28
(dp29
I00
(dp30
S'TRACK'
p31
(F1.2708262671098578
F0.048125173206917449
F1.1479223004352674
F0.057563074528840796
tp32
sssS'2J'
p33
(dp34
I00
(dp35
S'TRACK'
p36
(F1.1861763311645421
F0.11488184112310373
F1.1295440745762559
F0.072504289942126321
tp37
ssss.