(dp1
F11
(dp2
S'PRESELECTION'
p3
(dp4
I01
(dp5
S'TRACK'
p6
(dp7
S'nOS'
p8
(dp9
S'qcd_z_scale'
p10
F1
sS'qcd_data_scale'
p11
F1
sS'qcd_scale_error'
p12
F0.023288847225693923
sS'z_scale_error'
p13
F59.910070678781004
sS'qcd_scale'
p14
F0.13437338294164039
sS'qcd_others_scale'
p15
F1
sS'z_scale'
p16
F331.3237539695732
ssssssF12
(dp17
S'VBF'
p18
(dp19
I00
(dp20
S'TRACK'
p21
(dp22
S'SS_TRK'
p23
(dp24
S'qcd_z_scale'
p25
F1
sS'qcd_data_scale'
p26
F1
sS'qcd_scale_error'
p27
F0.23114045919185039
sS'z_scale_error'
p28
F0.17735543679764812
sS'qcd_scale'
p29
F1.5788731444166304
sS'qcd_others_scale'
p30
F1
sS'z_scale'
p31
F1.1363243970214021
ssS'nOS'
p32
(dp33
g25
F1
sg26
F1
sg27
F0.039133877081882526
sg28
F0.17735543679764812
sg29
F0.267315500616018
sg30
F1
sg31
F1.1363243970214021
ssssI01
(dp34
S'TRACK'
p35
(dp36
S'SS_TRK'
p37
(dp38
g25
F1
sg26
F1
sg27
F0.23114045919185039
sg28
F48.205902877183597
sg29
F1.5788731444166304
sg30
F1
sg31
F308.85742500403751
ssS'nOS'
p39
(dp40
g25
F1
sg26
F1
sg27
F0.039133877081882526
sg28
F48.205902877183597
sg29
F0.267315500616018
sg30
F1
sg31
F308.85742500403751
sssssS'CUT_PRESELECTION'
p41
(dp42
I00
(dp43
S'TRACK'
p44
(dp45
S'SS_TRK'
p46
(dp47
S'qcd_z_scale'
p48
F1
sS'qcd_data_scale'
p49
F1
sS'qcd_scale_error'
p50
F0.029028488625265737
sS'z_scale_error'
p51
F0.014069525622470295
sS'qcd_scale'
p52
F1.6892326005319465
sS'qcd_others_scale'
p53
F1
sS'z_scale'
p54
F0.81873712621780625
ssS'nOS'
p55
(dp56
g48
F1
sg49
F1
sg50
F0.0049080725316716801
sg51
F0.014069525622470295
sg52
F0.28561170487735887
sg53
F1
sg54
F0.81873712621780625
ssssI01
(dp57
S'TRACK'
p58
(dp59
S'SS_TRK'
p60
(dp61
g48
F1
sg49
F1
sg50
F0.029028488625265737
sg51
F4.5222530354927635
sg52
F1.6892326005319465
sg53
F1
sg54
F263.16000650340425
ssS'nOS'
p62
(dp63
g48
F1
sg49
F1
sg50
F0.0049080725316716801
sg51
F4.5222530354927635
sg52
F0.28561170487735887
sg53
F1
sg54
F263.16000650340425
sssssS'BOOSTED'
p64
(dp65
I00
(dp66
S'TRACK'
p67
(dp68
g23
(dp69
g25
F1
sg26
F1
sg27
F0.46195695594672548
sg28
F0.10775120928281018
sg29
F3.0774900301213171
sg30
F1
sg31
F0.71885823201903309
ssg32
(dp70
g25
F1
sg26
F1
sg27
F0.07888075116523495
sg28
F0.10775120928281018
sg29
F0.52549208785479651
sg30
F1
sg31
F0.71885823201903309
ssssI01
(dp71
S'TRACK'
p72
(dp73
g37
(dp74
g25
F1
sg26
F1
sg27
F0.46195695594672548
sg28
F37.18921149352385
sg29
F3.0774900301213171
sg30
F1
sg31
F248.10645748067131
ssg39
(dp75
S'qcd_z_scale'
p76
F1
sS'qcd_data_scale'
p77
F1
sS'qcd_scale_error'
p78
F0.034930618278160255
sS'z_scale_error'
p79
F14.456351283015813
sS'qcd_scale'
p80
F0.25969274143770726
sS'qcd_others_scale'
p81
F1
sS'z_scale'
p82
F290.02998982238279
sssssS'0J_NONBOOSTED'
p83
(dp84
I00
(dp85
S'TRACK'
p86
(dp87
S'SS_TRK'
p88
(dp89
S'qcd_z_scale'
p90
F1
sS'qcd_data_scale'
p91
F1
sS'qcd_scale_error'
p92
F0.029355762443992225
sS'z_scale_error'
p93
F0.019144783904423521
sS'qcd_scale'
p94
F1.4330567030615973
sS'qcd_others_scale'
p95
F1
sS'z_scale'
p96
F0.91273998677509227
ssS'SS'
p97
(dp98
g90
F1
sg91
F1
sg92
F0.029355762443992225
sg93
F0.019144783904423521
sg94
F1.3995550097962326
sg95
F1
sg96
F0.91273998677509227
ssS'nOS'
p99
(dp100
g90
F1
sg91
F1
sg92
F0.0055063901896678135
sg93
F0.019144783904423521
sg94
F0.26880478359338267
sg95
F1
sg96
F0.91273998677509227
ssssI01
(dp101
S'TRACK'
p102
(dp103
g37
(dp104
g90
F1
sg91
F1
sg92
F0.029355762443992225
sg93
F5.8583963336253673
sg94
F1.4330567030615973
sg95
F1
sg96
F279.30284398984332
ssg97
(dp105
g90
F1
sg91
F1
sg92
F0.029355762443992225
sg93
F5.727665868244431
sg94
F1.3995550097962326
sg95
F1
sg96
F273.07018428270885
ssg39
(dp106
g90
F1
sg91
F1
sg92
F0.0055063901896678135
sg93
F5.8583963336253673
sg94
F0.26880478359338267
sg95
F1
sg96
F279.30284398984332
sssssS'PRESELECTION'
p107
(dp108
I00
(dp109
S'TRACK'
p110
(dp111
S'SS_TRK'
p112
(dp113
S'qcd_z_scale'
p114
F1
sS'qcd_data_scale'
p115
F1
sS'qcd_scale_error'
p116
F0.12202573016331987
sS'z_scale_error'
p117
F0.061605850545959275
sS'qcd_scale'
p118
F1.4649359885223079
sS'qcd_others_scale'
p119
F1
sS'z_scale'
p120
F0.97584597424081332
ssS'SS'
p121
(dp122
S'qcd_z_scale'
p123
F1
sS'qcd_data_scale'
p124
F1
sS'qcd_scale_error'
p125
F0.02197373129765005
sS'z_scale_error'
p126
F0.013988952476527983
sS'qcd_scale'
p127
F1.4615458412844287
sS'qcd_others_scale'
p128
F1
sS'z_scale'
p129
F0.93045168519838484
ssS'nOS'
p130
(dp131
S'qcd_z_scale'
p132
F1
sS'qcd_data_scale'
p133
F1
sS'qcd_scale_error'
p134
F0.059067074733853565
sS'z_scale_error'
p135
F0.071273608025150897
sS'qcd_scale'
p136
F0.70873324482957945
sS'qcd_others_scale'
p137
F1
sS'z_scale'
p138
F0.85936338916783517
ssssI01
(dp139
S'TRACK'
p140
(dp141
S'SS_TRK'
p142
(dp143
S'qcd_z_scale'
p144
F1
sS'qcd_data_scale'
p145
F1
sS'qcd_scale_error'
p146
F0.1223589416144589
sS'z_scale_error'
p147
F20.048682622191844
sS'qcd_scale'
p148
F1.541776367334615
sS'qcd_others_scale'
p149
F1
sS'z_scale'
p150
F301.36140546016293
ssg121
(dp151
S'qcd_z_scale'
p152
F1
sS'qcd_data_scale'
p153
F1
sS'qcd_scale_error'
p154
F0.029469913915897608
sS'z_scale_error'
p155
F20.337329692020745
sS'qcd_scale'
p156
F0.82370574953558739
sS'qcd_others_scale'
p157
F1
sS'z_scale'
p158
F261.87779869180866
ssS'nOS'
p159
(dp160
S'qcd_z_scale'
p161
F1
sS'qcd_data_scale'
p162
F1
sS'qcd_scale_error'
p163
F0.058136184093798851
sS'z_scale_error'
p164
F22.736831857214941
sS'qcd_scale'
p165
F0.73911374751117898
sS'qcd_others_scale'
p166
F1
sS'z_scale'
p167
F263.78946274107312
sssssS'1J_NONBOOSTED'
p168
(dp169
I00
(dp170
S'TRACK'
p171
(dp172
g23
(dp173
g25
F1
sg26
F1
sg27
F0.045045075332381619
sg28
F0.0287138728879037
sg29
F1.5311390799782194
sg30
F1
sg31
F0.91208532845902601
ssg32
(dp174
g25
F1
sg26
F1
sg27
F0.0076410655094721197
sg28
F0.0287138728879037
sg29
F0.25972948047921202
sg30
F1
sg31
F0.91208532845902601
ssssI01
(dp175
S'TRACK'
p176
(dp177
g37
(dp178
g25
F1
sg26
F1
sg27
F0.045045075332381619
sg28
F9.1878602765392081
sg29
F1.5311390799782194
sg30
F1
sg31
F291.84891187887069
ssg39
(dp179
g25
F1
sg26
F1
sg27
F0.0076410655094721197
sg28
F9.1878602765392081
sg29
F0.25972948047921202
sg30
F1
sg31
F291.84891187887069
sssssS'PRESELECTION_DETA_CONTROL'
p180
(dp181
I00
(dp182
S'TRACK'
p183
(dp184
S'SS_TRK'
p185
(dp186
S'qcd_z_scale'
p187
F1
sS'qcd_data_scale'
p188
F1
sS'qcd_scale_error'
p189
F0.038053451919162505
sS'z_scale_error'
p190
F0.020150382138893867
sS'qcd_scale'
p191
F1.3446176259958396
sS'qcd_others_scale'
p192
F1
sS'z_scale'
p193
F0.69759677264013042
ssS'SS'
p194
(dp195
g187
F1
sg188
F1
sg189
F0.038053451919162505
sg190
F0.020150382138893867
sg191
F1.3173926461367522
sg192
F1
sg193
F0.69759677264013042
ssS'nOS'
p196
(dp197
g187
F1
sg188
F1
sg189
F0.0068318757221160955
sg190
F0.020150382138893867
sg191
F0.24140413159060736
sg192
F1
sg193
F0.69759677264013042
ssssI01
(dp198
S'TRACK'
p199
(dp200
g185
(dp201
g187
F1
sg188
F1
sg189
F0.038053451919162505
sg190
F7.902397087263985
sg191
F1.3446176259958396
sg192
F1
sg193
F273.57727839590916
ssg194
(dp202
g187
F1
sg188
F1
sg189
F0.038053451919162505
sg190
F7.6168594817023507
sg191
F1.3173926461367522
sg192
F1
sg193
F263.69210050031415
ssg196
(dp203
g187
F1
sg188
F1
sg189
F0.0068318757221160955
sg190
F7.902397087263985
sg191
F0.24140413159060736
sg192
F1
sg193
F273.57727839590916
ssssss.