(dp1
F11
(dp2
S'PRESELECTION'
p3
(dp4
I00
(dp5
S'DETA_TAU1_TAU2'
p6
(dp7
S'OS_NONISOL'
p8
(dp9
S'qcd_z_scale'
p10
F1
sS'qcd_data_scale'
p11
F1
sS'qcd_scale_error'
p12
F0.37256074279465951
sS'z_scale_error'
p13
F0.13185981861402191
sS'qcd_scale'
p14
F1.8980905409992646
sS'qcd_others_scale'
p15
F1
sS'z_scale'
p16
F1.3872663822567277
ssS'OS_DOUBLE_NONISOL'
p17
(dp18
S'qcd_z_scale'
p19
F1
sS'qcd_data_scale'
p20
F1
sS'qcd_scale_error'
p21
F198.20633041375703
sS'z_scale_error'
p22
F13.543451001660356
sS'qcd_scale'
p23
F17.965278499318114
sS'qcd_others_scale'
p24
F1
sS'z_scale'
p25
F1.2275686078178334
ssS'SS_DOUBLE_NONISOL'
p26
(dp27
S'qcd_z_scale'
p28
F1
sS'qcd_data_scale'
p29
F1
sS'qcd_scale_error'
p30
F9.1403302575212315
sS'z_scale_error'
p31
F0.3463693456343393
sS'qcd_scale'
p32
F17.66010823702651
sS'qcd_others_scale'
p33
F1
sS'z_scale'
p34
F1.6875113066711092
ssS'SS'
p35
(dp36
S'qcd_z_scale'
p37
F1
sS'qcd_data_scale'
p38
F1
sS'qcd_scale_error'
p39
F0.22405243647768525
sS'z_scale_error'
p40
F0.18268156780900252
sS'qcd_scale'
p41
F1.1297408604227819
sS'qcd_others_scale'
p42
F1
sS'z_scale'
p43
F1.134169434371864
ssS'nOS_NONISOL'
p44
(dp45
S'qcd_z_scale'
p46
F1
sS'qcd_data_scale'
p47
F1
sS'qcd_scale_error'
p48
F0.10359697153548371
sS'z_scale_error'
p49
F0.1506070720063038
sS'qcd_scale'
p50
F0.65278748684413712
sS'qcd_others_scale'
p51
F1
sS'z_scale'
p52
F1.1574273473084069
ssS'SS_NONISOL'
p53
(dp54
S'qcd_z_scale'
p55
F1
sS'qcd_data_scale'
p56
F1
sS'qcd_scale_error'
p57
F1.1201055643471172
sS'z_scale_error'
p58
F0.26204742040224588
sS'qcd_scale'
p59
F3.87672104349096
sS'qcd_others_scale'
p60
F1
sS'z_scale'
p61
F1.1868743083754687
ssS'nOS_ISOL'
p62
(dp63
S'qcd_z_scale'
p64
F1
sS'qcd_data_scale'
p65
F1
sS'qcd_scale_error'
p66
F0.030721838132545368
sS'z_scale_error'
p67
F0.14445469728580509
sS'qcd_scale'
p68
F0.21220353388477983
sS'qcd_others_scale'
p69
F1
sS'z_scale'
p70
F1.1352801670500072
ssS'SS_ISOL'
p71
(dp72
S'qcd_z_scale'
p73
F1
sS'qcd_data_scale'
p74
F1
sS'qcd_scale_error'
p75
F0.34150647491812158
sS'z_scale_error'
p76
F0.19793366603643267
sS'qcd_scale'
p77
F1.6038308503558554
sS'qcd_others_scale'
p78
F1
sS'z_scale'
p79
F1.1085858026235118
ssS'NONISOL'
p80
(dp81
S'qcd_z_scale'
p82
F1
sS'qcd_data_scale'
p83
F1
sS'qcd_scale_error'
p84
F0.078413109099403369
sS'z_scale_error'
p85
F0.14518865695969274
sS'qcd_scale'
p86
F0.50791791025552413
sS'qcd_others_scale'
p87
F1
sS'z_scale'
p88
F1.1709375917296776
ssS'DOUBLE_NONISOL'
p89
(dp90
S'qcd_z_scale'
p91
F1
sS'qcd_data_scale'
p92
F1
sS'qcd_scale_error'
p93
F0.79988091614993284
sS'z_scale_error'
p94
F0.13244352721274547
sS'qcd_scale'
p95
F4.18440008168366
sS'qcd_others_scale'
p96
F1
sS'z_scale'
p97
F1.5732967763228962
ssS'nOS_DOUBLE_NONISOL'
p98
(dp99
S'qcd_z_scale'
p100
F1
sS'qcd_data_scale'
p101
F1
sS'qcd_scale_error'
p102
F1.0637365434988533
sS'z_scale_error'
p103
F0.14133386742551413
sS'qcd_scale'
p104
F5.0697589748923093
sS'qcd_others_scale'
p105
F1
sS'z_scale'
p106
F1.5780054108989365
ssS'nOS'
p107
(dp108
S'qcd_z_scale'
p109
F1
sS'qcd_data_scale'
p110
F1
sS'qcd_scale_error'
p111
F0.023061766176146793
sS'z_scale_error'
p112
F0.14292132806027547
sS'qcd_scale'
p113
F0.16081618897302033
sS'qcd_others_scale'
p114
F1
sS'z_scale'
p115
F1.1366241245069311
ssssI01
(dp116
S'DETA_TAU1_TAU2'
p117
(dp118
S'OS_NONISOL'
p119
(dp120
S'qcd_z_scale'
p121
F1
sS'qcd_data_scale'
p122
F1
sS'qcd_scale_error'
p123
F0.47926383587131055
sS'z_scale_error'
p124
F40.543165759784245
sS'qcd_scale'
p125
F2.329466928902574
sS'qcd_others_scale'
p126
F1
sS'z_scale'
p127
F373.53111377086145
ssS'OS_DOUBLE_NONISOL'
p128
(dp129
S'qcd_z_scale'
p130
F1
sS'qcd_data_scale'
p131
F1
sS'qcd_scale_error'
p132
F3.3802350549767697
sS'z_scale_error'
p133
F37.087082745632692
sS'qcd_scale'
p134
F13.433894322084335
sS'qcd_others_scale'
p135
F1
sS'z_scale'
p136
F511.45198488379435
ssS'SS_DOUBLE_NONISOL'
p137
(dp138
S'qcd_z_scale'
p139
F1
sS'qcd_data_scale'
p140
F1
sS'qcd_scale_error'
p141
F9.2844931682418377
sS'z_scale_error'
p142
F95.745944144622598
sS'qcd_scale'
p143
F18.707636492829806
sS'qcd_others_scale'
p144
F1
sS'z_scale'
p145
F456.92505638968311
ssS'SS'
p146
(dp147
S'qcd_z_scale'
p148
F1
sS'qcd_data_scale'
p149
F1
sS'qcd_scale_error'
p150
F0.228533954235902
sS'z_scale_error'
p151
F52.53315721997852
sS'qcd_scale'
p152
F1.1760449202213201
sS'qcd_others_scale'
p153
F1
sS'z_scale'
p154
F311.41871803068278
ssS'nOS_NONISOL'
p155
(dp156
S'qcd_z_scale'
p157
F1
sS'qcd_data_scale'
p158
F1
sS'qcd_scale_error'
p159
F0.10297890162423079
sS'z_scale_error'
p160
F42.194584609302424
sS'qcd_scale'
p161
F0.66303531373593583
sS'qcd_others_scale'
p162
F1
sS'z_scale'
p163
F325.69820803470918
ssS'SS_NONISOL'
p164
(dp165
S'qcd_z_scale'
p166
F1
sS'qcd_data_scale'
p167
F1
sS'qcd_scale_error'
p168
F1.1155130468693255
sS'z_scale_error'
p169
F73.594473810039219
sS'qcd_scale'
p170
F3.925379760489669
sS'qcd_others_scale'
p171
F1
sS'z_scale'
p172
F334.14211848894729
ssS'nOS_ISOL'
p173
(dp174
S'qcd_z_scale'
p175
F1
sS'qcd_data_scale'
p176
F1
sS'qcd_scale_error'
p177
F0.031072047903765838
sS'z_scale_error'
p178
F41.244765795199079
sS'qcd_scale'
p179
F0.21641529871726845
sS'qcd_others_scale'
p180
F1
sS'z_scale'
p181
F317.56757473062197
ssS'SS_ISOL'
p182
(dp183
S'qcd_z_scale'
p184
F1
sS'qcd_data_scale'
p185
F1
sS'qcd_scale_error'
p186
F0.35836188718152201
sS'z_scale_error'
p187
F59.196516304714777
sS'qcd_scale'
p188
F1.6939368522547087
sS'qcd_others_scale'
p189
F1
sS'z_scale'
p190
F299.64106105817962
ssS'NONISOL'
p191
(dp192
S'qcd_z_scale'
p193
F1
sS'qcd_data_scale'
p194
F1
sS'qcd_scale_error'
p195
F0.079292962242130088
sS'z_scale_error'
p196
F40.787982078899965
sS'qcd_scale'
p197
F0.52465338331724753
sS'qcd_others_scale'
p198
F1
sS'z_scale'
p199
F328.74981715586341
ssS'DOUBLE_NONISOL'
p200
(dp201
S'qcd_z_scale'
p202
F1
sS'qcd_data_scale'
p203
F1
sS'qcd_scale_error'
p204
F0.84052796905113969
sS'z_scale_error'
p205
F37.616796632734349
sS'qcd_scale'
p206
F4.4020946409075883
sS'qcd_others_scale'
p207
F1
sS'z_scale'
p208
F421.4034229095617
ssS'nOS_DOUBLE_NONISOL'
p209
(dp210
S'qcd_z_scale'
p211
F1
sS'qcd_data_scale'
p212
F1
sS'qcd_scale_error'
p213
F1.0654944421834578
sS'z_scale_error'
p214
F37.890360490164468
sS'qcd_scale'
p215
F5.2679847175156977
sS'qcd_others_scale'
p216
F1
sS'z_scale'
p217
F427.64884371957487
ssS'nOS'
p218
(dp219
S'qcd_z_scale'
p220
F1
sS'qcd_data_scale'
p221
F1
sS'qcd_scale_error'
p222
F0.02323520553336364
sS'z_scale_error'
p223
F40.639528841389094
sS'qcd_scale'
p224
F0.16375316231230258
sS'qcd_others_scale'
p225
F1
sS'z_scale'
p226
F318.52428728314737
ssssssF12
(dp227
S'PRESELECTION'
p228
(dp229
I00
(dp230
S'DETA_TAU1_TAU2'
p231
(dp232
S'OS_NONISOL'
p233
(dp234
S'qcd_z_scale'
p235
F1
sS'qcd_data_scale'
p236
F1
sS'qcd_scale_error'
p237
F0.046998305151095814
sS'z_scale_error'
p238
F0.041272284730974808
sS'qcd_scale'
p239
F0.91066633136553743
sS'qcd_others_scale'
p240
F1
sS'z_scale'
p241
F0.95972766433645096
ssS'OS_DOUBLE_NONISOL'
p242
(dp243
S'qcd_z_scale'
p244
F1
sS'qcd_data_scale'
p245
F1
sS'qcd_scale_error'
p246
F0.42659781670337099
sS'z_scale_error'
p247
F0.059850514008079066
sS'qcd_scale'
p248
F5.1539999918812205
sS'qcd_others_scale'
p249
F1
sS'z_scale'
p250
F0.91630315566817355
ssS'SS_DOUBLE_NONISOL'
p251
(dp252
S'qcd_z_scale'
p253
F1
sS'qcd_data_scale'
p254
F1
sS'qcd_scale_error'
p255
F0.50967120973454827
sS'z_scale_error'
p256
F0.063954053085019072
sS'qcd_scale'
p257
F6.1262411798565362
sS'qcd_others_scale'
p258
F1
sS'z_scale'
p259
F0.86921705998385645
ssS'SS'
p260
(dp261
S'qcd_z_scale'
p262
F1
sS'qcd_data_scale'
p263
F1
sS'qcd_scale_error'
p264
F0.035160209594734225
sS'z_scale_error'
p265
F0.04174981965061754
sS'qcd_scale'
p266
F0.66291173321470487
sS'qcd_others_scale'
p267
F1
sS'z_scale'
p268
F0.97552224766179307
ssS'nOS_NONISOL'
p269
(dp270
S'qcd_z_scale'
p271
F1
sS'qcd_data_scale'
p272
F1
sS'qcd_scale_error'
p273
F0.018719563908460597
sS'z_scale_error'
p274
F0.04402493094755993
sS'qcd_scale'
p275
F0.35209896339041064
sS'qcd_others_scale'
p276
F1
sS'z_scale'
p277
F0.93082952517092288
ssS'SS_NONISOL'
p278
(dp279
S'qcd_z_scale'
p280
F1
sS'qcd_data_scale'
p281
F1
sS'qcd_scale_error'
p282
F0.065438370380575983
sS'z_scale_error'
p283
F0.043799841194185105
sS'qcd_scale'
p284
F1.23601744823604
sS'qcd_others_scale'
p285
F1
sS'z_scale'
p286
F0.93172359229331814
ssS'nOS_ISOL'
p287
(dp288
S'qcd_z_scale'
p289
F1
sS'qcd_data_scale'
p290
F1
sS'qcd_scale_error'
p291
F0.034615616984526323
sS'z_scale_error'
p292
F0.042663247054718037
sS'qcd_scale'
p293
F0.6373624169627593
sS'qcd_others_scale'
p294
F1
sS'z_scale'
p295
F0.97705395364919123
ssS'SS_ISOL'
p296
(dp297
S'qcd_z_scale'
p298
F1
sS'qcd_data_scale'
p299
F1
sS'qcd_scale_error'
p300
F0.093951314526728891
sS'z_scale_error'
p301
F0.046319446189745199
sS'qcd_scale'
p302
F1.4334642867048257
sS'qcd_others_scale'
p303
F1
sS'z_scale'
p304
F1.0257877660822701
ssS'NONISOL'
p305
(dp306
S'qcd_z_scale'
p307
F1
sS'qcd_data_scale'
p308
F1
sS'qcd_scale_error'
p309
F0.013411799485749125
sS'z_scale_error'
p310
F0.04342511710388363
sS'qcd_scale'
p311
F0.25472429164843979
sS'qcd_others_scale'
p312
F1
sS'z_scale'
p313
F0.93451429506360661
ssS'DOUBLE_NONISOL'
p314
(dp315
S'qcd_z_scale'
p316
F1
sS'qcd_data_scale'
p317
F1
sS'qcd_scale_error'
p318
F0.057402170804094418
sS'z_scale_error'
p319
F0.041922195825538522
sS'qcd_scale'
p320
F1.1150845928983648
sS'qcd_others_scale'
p321
F1
sS'z_scale'
p322
F0.88975682365765729
ssS'nOS_DOUBLE_NONISOL'
p323
(dp324
S'qcd_z_scale'
p325
F1
sS'qcd_data_scale'
p326
F1
sS'qcd_scale_error'
p327
F0.074596499903775704
sS'z_scale_error'
p328
F0.042815917877411958
sS'qcd_scale'
p329
F1.4353967653241653
sS'qcd_others_scale'
p330
F1
sS'z_scale'
p331
F0.87737731246123962
ssS'OS'
p332
(dp333
S'qcd_z_scale'
p334
F1
sS'qcd_data_scale'
p335
F1
sS'qcd_scale_error'
p336
F0.051122521550678118
sS'z_scale_error'
p337
F0.042180743082397339
sS'qcd_scale'
p338
F1.0000128224346507
sS'qcd_others_scale'
p339
F1
sS'z_scale'
p340
F0.87715311239825233
ssS'nOS'
p341
(dp342
S'qcd_z_scale'
p343
F1
sS'qcd_data_scale'
p344
F1
sS'qcd_scale_error'
p345
F0.012172635779683735
sS'z_scale_error'
p346
F0.043637984532217934
sS'qcd_scale'
p347
F0.22734477867865646
sS'qcd_others_scale'
p348
F1
sS'z_scale'
p349
F0.94491577794620563
ssssI01
(dp350
S'DETA_TAU1_TAU2'
p351
(dp352
S'OS_NONISOL'
p353
(dp354
S'qcd_z_scale'
p355
F1
sS'qcd_data_scale'
p356
F1
sS'qcd_scale_error'
p357
F0.04701271400455552
sS'z_scale_error'
p358
F13.039516509615975
sS'qcd_scale'
p359
F0.94364637961363029
sS'qcd_others_scale'
p360
F1
sS'z_scale'
p361
F299.60137429207788
ssS'OS_DOUBLE_NONISOL'
p362
(dp363
S'qcd_z_scale'
p364
F1
sS'qcd_data_scale'
p365
F1
sS'qcd_scale_error'
p366
F0.38051215992439219
sS'z_scale_error'
p367
F16.910201633698346
sS'qcd_scale'
p368
F5.1244910310401286
sS'qcd_others_scale'
p369
F1
sS'z_scale'
p370
F300.58983054796187
ssS'SS_DOUBLE_NONISOL'
p371
(dp372
S'qcd_z_scale'
p373
F1
sS'qcd_data_scale'
p374
F1
sS'qcd_scale_error'
p375
F0.5017728225554412
sS'z_scale_error'
p376
F20.109459576607509
sS'qcd_scale'
p377
F6.3837216200647582
sS'qcd_others_scale'
p378
F1
sS'z_scale'
p379
F270.23108002556819
ssS'SS'
p380
(dp381
S'qcd_z_scale'
p382
F1
sS'qcd_data_scale'
p383
F1
sS'qcd_scale_error'
p384
F0.034957393947030117
sS'z_scale_error'
p385
F13.252500584270793
sS'qcd_scale'
p386
F0.6799013388489612
sS'qcd_others_scale'
p387
F1
sS'z_scale'
p388
F303.85994248517613
ssS'nOS_NONISOL'
p389
(dp390
S'qcd_z_scale'
p391
F1
sS'qcd_data_scale'
p392
F1
sS'qcd_scale_error'
p393
F0.018565679283332893
sS'z_scale_error'
p394
F13.886409448619759
sS'qcd_scale'
p395
F0.3607380223986667
sS'qcd_others_scale'
p396
F1
sS'z_scale'
p397
F290.64940557669189
ssS'SS_NONISOL'
p398
(dp399
S'qcd_z_scale'
p400
F1
sS'qcd_data_scale'
p401
F1
sS'qcd_scale_error'
p402
F0.064976404703100774
sS'z_scale_error'
p403
F13.857685268412842
sS'qcd_scale'
p404
F1.2692949696725979
sS'qcd_others_scale'
p405
F1
sS'z_scale'
p406
F289.6925994576705
ssS'nOS_ISOL'
p407
(dp408
S'qcd_z_scale'
p409
F1
sS'qcd_data_scale'
p410
F1
sS'qcd_scale_error'
p411
F0.034325602361327548
sS'z_scale_error'
p412
F13.526999763937232
sS'qcd_scale'
p413
F0.65189172695432829
sS'qcd_others_scale'
p414
F1
sS'z_scale'
p415
F304.69861720366731
ssS'SS_ISOL'
p416
(dp417
S'qcd_z_scale'
p418
F1
sS'qcd_data_scale'
p419
F1
sS'qcd_scale_error'
p420
F0.093099370237394258
sS'z_scale_error'
p421
F14.747456396554853
sS'qcd_scale'
p422
F1.4884799894134468
sS'qcd_others_scale'
p423
F1
sS'z_scale'
p424
F317.05461102200695
ssS'NONISOL'
p425
(dp426
S'qcd_z_scale'
p427
F1
sS'qcd_data_scale'
p428
F1
sS'qcd_scale_error'
p429
F0.01332821805870661
sS'z_scale_error'
p430
F13.688605442767912
sS'qcd_scale'
p431
F0.26144045286635598
sS'qcd_others_scale'
p432
F1
sS'z_scale'
p433
F292.09412521493931
ssS'DOUBLE_NONISOL'
p434
(dp435
S'qcd_z_scale'
p436
F1
sS'qcd_data_scale'
p437
F1
sS'qcd_scale_error'
p438
F0.057005448437692417
sS'z_scale_error'
p439
F13.307325661872598
sS'qcd_scale'
p440
F1.1261494898178228
sS'qcd_others_scale'
p441
F1
sS'z_scale'
p442
F284.58238018763205
ssS'nOS_DOUBLE_NONISOL'
p443
(dp444
S'qcd_z_scale'
p445
F1
sS'qcd_data_scale'
p446
F1
sS'qcd_scale_error'
p447
F0.074619812881244169
sS'z_scale_error'
p448
F13.715439623239941
sS'qcd_scale'
p449
F1.454533301259856
sS'qcd_others_scale'
p450
F1
sS'z_scale'
p451
F278.93814888415523
ssS'OS'
p452
(dp453
S'qcd_z_scale'
p454
F1
sS'qcd_data_scale'
p455
F1
sS'qcd_scale_error'
p456
F0.0499659372252537
sS'z_scale_error'
p457
F13.25154593350697
sS'qcd_scale'
p458
F0.99998889450441042
sS'qcd_others_scale'
p459
F1
sS'z_scale'
p460
F281.89070135225347
ssS'nOS'
p461
(dp462
S'qcd_z_scale'
p463
F1
sS'qcd_data_scale'
p464
F1
sS'qcd_scale_error'
p465
F0.012070039995500903
sS'z_scale_error'
p466
F13.787764425794
sS'qcd_scale'
p467
F0.23270688299297931
sS'qcd_others_scale'
p468
F1
sS'z_scale'
p469
F294.97507608974325
ssssss.