(dp1
F11
(dp2
S'0J'
p3
(dp4
I00
(dp5
S'TRACK'
p6
(F1.2569730460954343
F0.041263317533857188
F1.0687344779046304
F0.085050980920730684
tp7
sssS'PRESELECTION'
p8
(dp9
I00
(dp10
S'TRACK'
p11
(F1.3105431549130973
F0.038237776947673822
F0.7668161433517765
F0.054563271687802922
tp12
sssS'Z'
(dp13
I00
(dp14
S'TRACK'
p15
(F1.3915154003331829
F0.094665159623971831
F0.81248481950336948
F0.085539298574521028
tp16
sssS'2J'
p17
(dp18
I00
(dp19
S'TRACK'
p20
(F0.97285022842364921
F0.20888230695421411
F1.266820885929044
F0.17089225022830917
tp21
sssS'1J'
p22
(dp23
I00
(dp24
S'TRACK'
p25
(F1.398636868308059
F0.091371858400566511
F1.0327562465410176
F0.0082874122806298571
tp26
ssssF12
(dp27
S'0J'
p28
(dp29
I00
(dp30
S'TRACK'
p31
(F1.2509560730099096
F0.0018661386177692377
F1.0633245201824015
F0.0051420831041524909
tp32
sssS'PRESELECTION'
p33
(dp34
I00
(dp35
S'TRACK'
p36
(F1.2137820371254109
F0.00062136543994917163
F1.1583474830018008
F0.00016025809675018207
tp37
sssS'Z'
(dp38
I00
(dp39
S'TRACK'
p40
(F1.2410524209250922
F0.00012499170391698589
F0.99941855014342929
F0.00094161905560414313
tp41
sssS'2J'
p42
(dp43
I00
(dp44
S'TRACK'
p45
(F1.163296280308761
F0.011477165442908884
F0.92441590326279655
F0.0025025168071994984
tp46
sssS'1J'
p47
(dp48
I00
(dp49
S'TRACK'
p50
(F1.2740916525162205
F0.059872337899542279
F0.96191118657917984
F0.060669542914079305
tp51
ssss.