(dp0
S'gg'
p1
(dp2
S'cuts_vbf_highdr_loose'
p3
F0.14
sS'vbf'
p4
F0.01
sS'cuts_boosted_loose'
p5
F0.02
sS'boosted'
p6
F0.01
sS'cuts_vbf_lowdr'
p7
F0.006
sS'cuts_vbf_highdr_tight'
p8
F0.47
sS'cuts_boosted_tight'
p9
F0.09
ssS'VBF'
p10
(dp11
g3
F0.07
sg4
F0.08
sg5
F0.03
sg6
F0.05
sg7
F0.11
sg8
F0.08
sg9
F0.09
ss.