(dp0
S'cuts_vbf_highdr_loose'
p1
(dp2
S'sob'
p3
F0.16038746522911068
sS'Signal_VBF'
p4
F14.156240463256836
sS'Signal_gg'
p5
F10.666210174560547
sS'Ztautau'
p6
F65.56049346923828
sS'Signal_V'
p7
F0.4618902802467346
sS'Others'
p8
F6.763676643371582
sS'Fakes'
p9
F85.32119750976562
ssS'vbf'
p10
(dp11
g3
F0.16186431874906243
sg4
F84.98531341552734
sg5
F58.727054595947266
sg6
F479.1112976074219
sg7
F3.4920074939727783
sg8
F37.94919204711914
sg9
F392.37017822265625
ssS'cuts_boosted_loose'
p12
(dp13
g3
F0.06450923578564043
sg4
F30.04152488708496
sg5
F85.1370620727539
sg6
F1382.1182861328125
sg7
F22.284534454345703
sg8
F82.69359588623047
sg9
F666.0941772460938
ssS'boosted'
p14
(dp15
g3
F0.07563290096535764
sg4
F44.2822265625
sg5
F134.36302185058594
sg6
F2230.224609375
sg7
F45.341819763183594
sg8
F91.31294250488281
sg9
F639.9655151367188
ssS'rest'
p16
(dp17
g3
F0.029870774009653184
sg4
F26.721698760986328
sg5
F124.57157135009766
sg6
F2376.59619140625
sg7
F18.500154495239258
sg8
F65.03453826904297
sg9
F3242.63525390625
ssS'cuts_vbf_lowdr'
p18
(dp19
g3
F0.7011260984793539
sg4
F30.12591552734375
sg5
F10.362835884094238
sg6
F51.63703918457031
sg7
F0.432914137840271
sg8
F5.684723377227783
sg9
F1.0438661575317383
ssS'cuts_vbf_highdr_tight'
p20
(dp21
g3
F0.38743342081141663
sg4
F26.15756607055664
sg5
F7.248608589172363
sg6
F29.106929779052734
sg7
F0.0948980301618576
sg8
F3.665618658065796
sg9
F53.69668960571289
ssS'cuts_boosted_tight'
p22
(dp23
g3
F0.10742492176452982
sg4
F25.70317840576172
sg5
F72.3795166015625
sg6
F1069.7117919921875
sg7
F24.873489379882812
sg8
F26.261165618896484
sg9
F48.60487747192383
ss.