(dp1
F11
(dp2
S'BOOSTED'
p3
(dp4
I00
(dp5
S'TRACK'
p6
(F1.3670607874738954
F0.17543337032242329
F0.81242666510519024
F0.11515843918582987
tp7
sssS'Z'
(dp8
I00
(dp9
S'TRACK'
p10
(F1.3915154003331829
F0.094665159623971831
F0.81248481950336948
F0.085539298574521028
tp11
sssS'GGF'
p12
(dp13
I00
(dp14
S'TRACK'
p15
(F1.2918560551205363
F0.039821968392869521
F0.76570421050649329
F0.063176616265340046
tp16
sssS'VBF'
p17
(dp18
I00
(dp19
S'TRACK'
p20
(F1.0734790285728906
F0.20039356788689575
F1.043872726093088
F0.14305923295292414
tp21
sssS'PRESELECTION'
p22
(dp23
I00
(dp24
S'TRACK'
p25
(F1.3105431549130973
F0.038237776947673822
F0.7668161433517765
F0.054563271687802922
tp26
ssssF12
(dp27
S'BOOSTED'
p28
(dp29
I00
(dp30
S'TRACK'
p31
(F1.1211233712696826
F0.039541210627551601
F1.0254360030467147
F0.071605286089452588
tp32
sssS'Z'
(dp33
I00
(dp34
S'TRACK'
p35
(F1.2156092234254123
F0.021786667351515548
F1.0092125565967716
F0.055875304906845523
tp36
sssS'GGF'
p37
(dp38
I00
(dp39
S'TRACK'
p40
(F1.1713740637534606
F0.013226460027526568
F1.0104754810497545
F0.04576683597244937
tp41
sssS'VBF'
p42
(dp43
I00
(dp44
S'TRACK'
p45
(F1.0415544614822656
F0.048534878961752036
F1.0454527127860864
F0.092223746997649292
tp46
sssS'PRESELECTION'
p47
(dp48
I00
(dp49
S'TRACK'
p50
(F1.1601271145397609
F0.012180954598875374
F1.0206374558105307
F0.038195360697552944
tp51
ssss.